
test.c:     file format elf32-i386


Disassembly of section .text:

00000100 <PASCALMAIN>:
     100:	55                   	push   %ebp
     101:	89 e5                	mov    %esp,%ebp
     103:	e8 f8 52 01 00       	call   15400 <FPC_INITIALIZEUNITS>

00000108 <_$TEST$_Ll2>:
     108:	ba dc 02 02 00       	mov    $0x202dc,%edx
     10d:	b8 00 00 00 00       	mov    $0x0,%eax
     112:	e8 b9 0a 01 00       	call   10bd0 <SYSTEM_TOBJECT_$__CREATE$$TOBJECT>
     117:	a3 20 51 02 00       	mov    %eax,0x25120

0000011c <_$TEST$_Ll3>:
     11c:	a1 20 51 02 00       	mov    0x25120,%eax
     121:	c7 40 04 64 00 00 00 	movl   $0x64,0x4(%eax)

00000128 <_$TEST$_Ll4>:
     128:	a1 20 51 02 00       	mov    0x25120,%eax
     12d:	8d 40 08             	lea    0x8(%eax),%eax
     130:	b9 9c 03 02 00       	mov    $0x2039c,%ecx
     135:	ba ff 00 00 00       	mov    $0xff,%edx
     13a:	e8 31 25 00 00       	call   2670 <FPC_SHORTSTR_TO_SHORTSTR>

0000013f <_$TEST$_Ll5>:
     13f:	e8 6c 55 01 00       	call   156b0 <FPC_DO_EXIT>
     144:	c9                   	leave  
     145:	c3                   	ret    

00000146 <DEBUGEND_P$TEST>:
	...

00000150 <SYSTEM_TCANVAS_$__CREATE$LONGINT>:
     150:	55                   	push   %ebp
     151:	89 e5                	mov    %esp,%ebp
     153:	83 ec 08             	sub    $0x8,%esp
     156:	89 45 f8             	mov    %eax,-0x8(%ebp)
     159:	89 55 fc             	mov    %edx,-0x4(%ebp)
     15c:	8b 45 f8             	mov    -0x8(%ebp),%eax
     15f:	8b 55 fc             	mov    -0x4(%ebp),%edx
     162:	89 10                	mov    %edx,(%eax)
     164:	8b 45 f8             	mov    -0x8(%ebp),%eax
     167:	c7 40 04 00 00 ff 00 	movl   $0xff0000,0x4(%eax)
     16e:	8b 45 f8             	mov    -0x8(%ebp),%eax
     171:	c7 40 08 00 00 00 00 	movl   $0x0,0x8(%eax)
     178:	c9                   	leave  
     179:	c3                   	ret    
     17a:	8d b6 00 00 00 00    	lea    0x0(%esi),%esi

00000180 <SYSTEM_TCANVAS_$__HEXOUT$SMALLINT$SMALLINT$BOOLEAN$BYTE$LONGWORD>:
     180:	55                   	push   %ebp
     181:	89 e5                	mov    %esp,%ebp
     183:	83 ec 0c             	sub    $0xc,%esp
     186:	89 45 f4             	mov    %eax,-0xc(%ebp)
     189:	66 89 55 fc          	mov    %dx,-0x4(%ebp)
     18d:	66 89 4d f8          	mov    %cx,-0x8(%ebp)
     191:	8b 45 f4             	mov    -0xc(%ebp),%eax
     194:	ff 70 08             	pushl  0x8(%eax)
     197:	0f b6 45 10          	movzbl 0x10(%ebp),%eax
     19b:	50                   	push   %eax
     19c:	0f b6 45 0c          	movzbl 0xc(%ebp),%eax
     1a0:	50                   	push   %eax
     1a1:	ff 75 08             	pushl  0x8(%ebp)
     1a4:	66 8b 4d f8          	mov    -0x8(%ebp),%cx
     1a8:	66 8b 55 fc          	mov    -0x4(%ebp),%dx
     1ac:	8b 45 f4             	mov    -0xc(%ebp),%eax
     1af:	8b 00                	mov    (%eax),%eax
     1b1:	e8 ea 05 00 00       	call   7a0 <SYSTEM_WRITEHEX$LONGINT$SMALLINT$SMALLINT$LONGWORD$BOOLEAN$BYTE$LONGWORD>
     1b6:	c9                   	leave  
     1b7:	c2 0c 00             	ret    $0xc
     1ba:	8d b6 00 00 00 00    	lea    0x0(%esi),%esi

000001c0 <SYSTEM_TCANVAS_$__TEXTOUT$SMALLINT$SMALLINT$SHORTSTRING>:
     1c0:	55                   	push   %ebp
     1c1:	89 e5                	mov    %esp,%ebp
     1c3:	81 ec 0c 01 00 00    	sub    $0x10c,%esp
     1c9:	89 45 f4             	mov    %eax,-0xc(%ebp)
     1cc:	66 89 55 fc          	mov    %dx,-0x4(%ebp)
     1d0:	66 89 4d f8          	mov    %cx,-0x8(%ebp)
     1d4:	8b 55 08             	mov    0x8(%ebp),%edx
     1d7:	8d 8d f4 fe ff ff    	lea    -0x10c(%ebp),%ecx
     1dd:	b8 ff 00 00 00       	mov    $0xff,%eax
     1e2:	e8 d9 24 00 00       	call   26c0 <FPC_SHORTSTR_ASSIGN>
     1e7:	8b 45 f4             	mov    -0xc(%ebp),%eax
     1ea:	ff 70 08             	pushl  0x8(%eax)
     1ed:	8d 85 f4 fe ff ff    	lea    -0x10c(%ebp),%eax
     1f3:	50                   	push   %eax
     1f4:	66 8b 4d f8          	mov    -0x8(%ebp),%cx
     1f8:	66 8b 55 fc          	mov    -0x4(%ebp),%dx
     1fc:	8b 45 f4             	mov    -0xc(%ebp),%eax
     1ff:	8b 00                	mov    (%eax),%eax
     201:	e8 7a 05 00 00       	call   780 <SYSTEM_WRITETEXT$LONGINT$SMALLINT$SMALLINT$LONGWORD$SHORTSTRING>
     206:	c9                   	leave  
     207:	c2 04 00             	ret    $0x4
     20a:	8d b6 00 00 00 00    	lea    0x0(%esi),%esi

00000210 <SYSTEM_TCANVAS_$__RECTANGLE$SMALLINT$SMALLINT$SMALLINT$SMALLINT>:
     210:	55                   	push   %ebp
     211:	89 e5                	mov    %esp,%ebp
     213:	83 ec 0c             	sub    $0xc,%esp
     216:	89 45 f4             	mov    %eax,-0xc(%ebp)
     219:	66 89 55 fc          	mov    %dx,-0x4(%ebp)
     21d:	66 89 4d f8          	mov    %cx,-0x8(%ebp)
     221:	0f b7 45 0c          	movzwl 0xc(%ebp),%eax
     225:	50                   	push   %eax
     226:	0f b7 45 08          	movzwl 0x8(%ebp),%eax
     22a:	50                   	push   %eax
     22b:	8b 45 f4             	mov    -0xc(%ebp),%eax
     22e:	ff 70 08             	pushl  0x8(%eax)
     231:	66 8b 4d f8          	mov    -0x8(%ebp),%cx
     235:	66 8b 55 fc          	mov    -0x4(%ebp),%dx
     239:	8b 45 f4             	mov    -0xc(%ebp),%eax
     23c:	8b 00                	mov    (%eax),%eax
     23e:	e8 0d 06 00 00       	call   850 <SYSTEM_DRAWSHAPE$LONGINT$SMALLINT$SMALLINT$SMALLINT$SMALLINT$LONGWORD>
     243:	0f bf 45 0c          	movswl 0xc(%ebp),%eax
     247:	48                   	dec    %eax
     248:	50                   	push   %eax
     249:	0f bf 45 08          	movswl 0x8(%ebp),%eax
     24d:	48                   	dec    %eax
     24e:	50                   	push   %eax
     24f:	8b 45 f4             	mov    -0xc(%ebp),%eax
     252:	ff 70 04             	pushl  0x4(%eax)
     255:	0f bf 4d f8          	movswl -0x8(%ebp),%ecx
     259:	41                   	inc    %ecx
     25a:	0f bf 55 fc          	movswl -0x4(%ebp),%edx
     25e:	42                   	inc    %edx
     25f:	8b 45 f4             	mov    -0xc(%ebp),%eax
     262:	8b 00                	mov    (%eax),%eax
     264:	e8 e7 05 00 00       	call   850 <SYSTEM_DRAWSHAPE$LONGINT$SMALLINT$SMALLINT$SMALLINT$SMALLINT$LONGWORD>
     269:	c9                   	leave  
     26a:	c2 08 00             	ret    $0x8
     26d:	8d 76 00             	lea    0x0(%esi),%esi

00000270 <SYSTEM_TFORM_$__CREATE$crc647BE28B>:
     270:	55                   	push   %ebp
     271:	89 e5                	mov    %esp,%ebp
     273:	81 ec 10 01 00 00    	sub    $0x110,%esp
     279:	89 45 f4             	mov    %eax,-0xc(%ebp)
     27c:	89 55 fc             	mov    %edx,-0x4(%ebp)
     27f:	66 89 4d f8          	mov    %cx,-0x8(%ebp)
     283:	8b 55 08             	mov    0x8(%ebp),%edx
     286:	8d 8d f0 fe ff ff    	lea    -0x110(%ebp),%ecx
     28c:	b8 ff 00 00 00       	mov    $0xff,%eax
     291:	e8 2a 24 00 00       	call   26c0 <FPC_SHORTSTR_ASSIGN>
     296:	0f b7 45 14          	movzwl 0x14(%ebp),%eax
     29a:	50                   	push   %eax
     29b:	0f b7 45 10          	movzwl 0x10(%ebp),%eax
     29f:	50                   	push   %eax
     2a0:	0f b7 45 0c          	movzwl 0xc(%ebp),%eax
     2a4:	50                   	push   %eax
     2a5:	8d 85 f0 fe ff ff    	lea    -0x110(%ebp),%eax
     2ab:	50                   	push   %eax
     2ac:	66 8b 4d 18          	mov    0x18(%ebp),%cx
     2b0:	66 8b 55 f8          	mov    -0x8(%ebp),%dx
     2b4:	8b 45 fc             	mov    -0x4(%ebp),%eax
     2b7:	e8 f4 00 00 00       	call   3b0 <SYSTEM_CREATEWINDOW$crc647BE28B>
     2bc:	8b 55 f4             	mov    -0xc(%ebp),%edx
     2bf:	89 02                	mov    %eax,(%edx)
     2c1:	8b 45 f4             	mov    -0xc(%ebp),%eax
     2c4:	8b 10                	mov    (%eax),%edx
     2c6:	8b 45 f4             	mov    -0xc(%ebp),%eax
     2c9:	8d 40 04             	lea    0x4(%eax),%eax
     2cc:	e8 7f fe ff ff       	call   150 <SYSTEM_TCANVAS_$__CREATE$LONGINT>
     2d1:	c9                   	leave  
     2d2:	c2 14 00             	ret    $0x14
     2d5:	8d b4 26 00 00 00 00 	lea    0x0(%esi,%eiz,1),%esi
     2dc:	8d 74 26 00          	lea    0x0(%esi,%eiz,1),%esi

000002e0 <SYSTEM_TFORM_$__SHOW>:
     2e0:	55                   	push   %ebp
     2e1:	89 e5                	mov    %esp,%ebp
     2e3:	83 ec 04             	sub    $0x4,%esp
     2e6:	89 45 fc             	mov    %eax,-0x4(%ebp)
     2e9:	8b 45 fc             	mov    -0x4(%ebp),%eax
     2ec:	8b 00                	mov    (%eax),%eax
     2ee:	e8 ed 00 00 00       	call   3e0 <SYSTEM_SHOWWINDOW$LONGINT>
     2f3:	c9                   	leave  
     2f4:	c3                   	ret    
     2f5:	8d b4 26 00 00 00 00 	lea    0x0(%esi,%eiz,1),%esi
     2fc:	8d 74 26 00          	lea    0x0(%esi,%eiz,1),%esi

00000300 <SYSTEM_TFORM_$__DRAW>:
     300:	55                   	push   %ebp
     301:	89 e5                	mov    %esp,%ebp
     303:	83 ec 04             	sub    $0x4,%esp
     306:	89 45 fc             	mov    %eax,-0x4(%ebp)
     309:	8b 45 fc             	mov    -0x4(%ebp),%eax
     30c:	8b 00                	mov    (%eax),%eax
     30e:	e8 dd 00 00 00       	call   3f0 <SYSTEM_DRAWWINDOW$LONGINT>
     313:	c9                   	leave  
     314:	c3                   	ret    
     315:	8d b4 26 00 00 00 00 	lea    0x0(%esi,%eiz,1),%esi
     31c:	8d 74 26 00          	lea    0x0(%esi,%eiz,1),%esi

00000320 <SYSTEM_GETSCREENRESOLUTION$PPOINTS>:
     320:	55                   	push   %ebp
     321:	89 e5                	mov    %esp,%ebp
     323:	50                   	push   %eax
     324:	b8 01 02 01 00       	mov    $0x10201,%eax
     329:	cd 34                	int    $0x34
     32b:	83 c4 04             	add    $0x4,%esp
     32e:	c9                   	leave  
     32f:	c3                   	ret    

00000330 <SYSTEM_SETPIXEL$LONGINT$SMALLINT$SMALLINT$LONGWORD>:
     330:	55                   	push   %ebp
     331:	89 e5                	mov    %esp,%ebp
     333:	ff 75 08             	pushl  0x8(%ebp)
     336:	66 51                	push   %cx
     338:	66 52                	push   %dx
     33a:	50                   	push   %eax
     33b:	b8 01 04 02 00       	mov    $0x20401,%eax
     340:	cd 34                	int    $0x34
     342:	83 c4 0c             	add    $0xc,%esp
     345:	c9                   	leave  
     346:	c2 04 00             	ret    $0x4
     349:	8d b4 26 00 00 00 00 	lea    0x0(%esi,%eiz,1),%esi

00000350 <SYSTEM_CREATEDESKTOP$LONGWORD$SHORTSTRING$$LONGINT>:
     350:	55                   	push   %ebp
     351:	89 e5                	mov    %esp,%ebp
     353:	83 ec 04             	sub    $0x4,%esp
     356:	52                   	push   %edx
     357:	50                   	push   %eax
     358:	b8 02 01 01 00       	mov    $0x10102,%eax
     35d:	cd 34                	int    $0x34
     35f:	83 c4 08             	add    $0x8,%esp
     362:	c9                   	leave  
     363:	c3                   	ret    
     364:	8d b4 26 00 00 00 00 	lea    0x0(%esi,%eiz,1),%esi
     36b:	8d 74 26 00          	lea    0x0(%esi,%eiz,1),%esi
     36f:	90                   	nop

00000370 <SYSTEM_GETCREATEDDESKTOPNUM$$SMALLINT>:
     370:	83 ec 04             	sub    $0x4,%esp
     373:	b8 02 01 02 01       	mov    $0x1020102,%eax
     378:	cd 34                	int    $0x34
     37a:	83 c4 04             	add    $0x4,%esp
     37d:	c3                   	ret    
     37e:	89 f6                	mov    %esi,%esi

00000380 <SYSTEM_ACTIVATEDESKTOP$WORD$$BOOLEAN>:
     380:	55                   	push   %ebp
     381:	89 e5                	mov    %esp,%ebp
     383:	83 ec 04             	sub    $0x4,%esp
     386:	66 50                	push   %ax
     388:	b8 02 01 04 01       	mov    $0x1040102,%eax
     38d:	cd 34                	int    $0x34
     38f:	83 c4 02             	add    $0x2,%esp
     392:	c9                   	leave  
     393:	c3                   	ret    
     394:	8d b4 26 00 00 00 00 	lea    0x0(%esi,%eiz,1),%esi
     39b:	8d 74 26 00          	lea    0x0(%esi,%eiz,1),%esi
     39f:	90                   	nop

000003a0 <SYSTEM_SHOWDESKTOP$LONGINT>:
     3a0:	55                   	push   %ebp
     3a1:	89 e5                	mov    %esp,%ebp
     3a3:	50                   	push   %eax
     3a4:	b8 02 01 08 00       	mov    $0x80102,%eax
     3a9:	cd 34                	int    $0x34
     3ab:	83 c4 04             	add    $0x4,%esp
     3ae:	c9                   	leave  
     3af:	c3                   	ret    

000003b0 <SYSTEM_CREATEWINDOW$crc647BE28B>:
     3b0:	55                   	push   %ebp
     3b1:	89 e5                	mov    %esp,%ebp
     3b3:	83 ec 04             	sub    $0x4,%esp
     3b6:	ff 75 08             	pushl  0x8(%ebp)
     3b9:	66 ff 75 0c          	pushw  0xc(%ebp)
     3bd:	66 ff 75 10          	pushw  0x10(%ebp)
     3c1:	66 ff 75 14          	pushw  0x14(%ebp)
     3c5:	66 51                	push   %cx
     3c7:	66 52                	push   %dx
     3c9:	50                   	push   %eax
     3ca:	b8 02 02 01 00       	mov    $0x10202,%eax
     3cf:	cd 34                	int    $0x34
     3d1:	83 c4 12             	add    $0x12,%esp
     3d4:	c9                   	leave  
     3d5:	c2 10 00             	ret    $0x10
     3d8:	8d b4 26 00 00 00 00 	lea    0x0(%esi,%eiz,1),%esi
     3df:	90                   	nop

000003e0 <SYSTEM_SHOWWINDOW$LONGINT>:
     3e0:	55                   	push   %ebp
     3e1:	89 e5                	mov    %esp,%ebp
     3e3:	50                   	push   %eax
     3e4:	b8 02 02 08 00       	mov    $0x80202,%eax
     3e9:	cd 34                	int    $0x34
     3eb:	83 c4 04             	add    $0x4,%esp
     3ee:	c9                   	leave  
     3ef:	c3                   	ret    

000003f0 <SYSTEM_DRAWWINDOW$LONGINT>:
     3f0:	55                   	push   %ebp
     3f1:	89 e5                	mov    %esp,%ebp
     3f3:	50                   	push   %eax
     3f4:	b8 02 02 10 00       	mov    $0x100202,%eax
     3f9:	cd 34                	int    $0x34
     3fb:	83 c4 04             	add    $0x4,%esp
     3fe:	c9                   	leave  
     3ff:	c3                   	ret    

00000400 <SYSTEM_CREATEBUTTON$crc5816F272>:
     400:	55                   	push   %ebp
     401:	89 e5                	mov    %esp,%ebp
     403:	83 ec 04             	sub    $0x4,%esp
     406:	ff 75 08             	pushl  0x8(%ebp)
     409:	66 ff 75 0c          	pushw  0xc(%ebp)
     40d:	66 ff 75 10          	pushw  0x10(%ebp)
     411:	66 51                	push   %cx
     413:	66 52                	push   %dx
     415:	50                   	push   %eax
     416:	b8 02 03 01 00       	mov    $0x10302,%eax
     41b:	cd 34                	int    $0x34
     41d:	83 c4 10             	add    $0x10,%esp
     420:	c9                   	leave  
     421:	c2 0c 00             	ret    $0xc
     424:	8d b4 26 00 00 00 00 	lea    0x0(%esi,%eiz,1),%esi
     42b:	8d 74 26 00          	lea    0x0(%esi,%eiz,1),%esi
     42f:	90                   	nop

00000430 <SYSTEM_SHOWBUTTON$LONGINT>:
     430:	55                   	push   %ebp
     431:	89 e5                	mov    %esp,%ebp
     433:	50                   	push   %eax
     434:	b8 02 03 08 00       	mov    $0x80302,%eax
     439:	cd 34                	int    $0x34
     43b:	83 c4 04             	add    $0x4,%esp
     43e:	c9                   	leave  
     43f:	c3                   	ret    

00000440 <SYSTEM_CREATEPOWERBUTTON$crc5816F272>:
     440:	55                   	push   %ebp
     441:	89 e5                	mov    %esp,%ebp
     443:	83 ec 04             	sub    $0x4,%esp
     446:	ff 75 08             	pushl  0x8(%ebp)
     449:	66 ff 75 0c          	pushw  0xc(%ebp)
     44d:	66 ff 75 10          	pushw  0x10(%ebp)
     451:	66 51                	push   %cx
     453:	66 52                	push   %dx
     455:	50                   	push   %eax
     456:	b8 02 04 01 00       	mov    $0x10402,%eax
     45b:	cd 34                	int    $0x34
     45d:	83 c4 10             	add    $0x10,%esp
     460:	c9                   	leave  
     461:	c2 0c 00             	ret    $0xc
     464:	8d b4 26 00 00 00 00 	lea    0x0(%esi,%eiz,1),%esi
     46b:	8d 74 26 00          	lea    0x0(%esi,%eiz,1),%esi
     46f:	90                   	nop

00000470 <SYSTEM_SHOWPOWERBUTTON$LONGINT>:
     470:	55                   	push   %ebp
     471:	89 e5                	mov    %esp,%ebp
     473:	50                   	push   %eax
     474:	b8 02 04 08 00       	mov    $0x80402,%eax
     479:	cd 34                	int    $0x34
     47b:	83 c4 04             	add    $0x4,%esp
     47e:	c9                   	leave  
     47f:	c3                   	ret    

00000480 <SYSTEM_POWERBUTTONSETSTATE$LONGINT$BYTE>:
     480:	55                   	push   %ebp
     481:	89 e5                	mov    %esp,%ebp
     483:	66 0f b6 d2          	movzbw %dl,%dx
     487:	66 52                	push   %dx
     489:	50                   	push   %eax
     48a:	b8 02 04 04 01       	mov    $0x1040402,%eax
     48f:	cd 34                	int    $0x34
     491:	83 c4 06             	add    $0x6,%esp
     494:	c9                   	leave  
     495:	c3                   	ret    
     496:	8d b4 26 00 00 00 00 	lea    0x0(%esi,%eiz,1),%esi
     49d:	8d 76 00             	lea    0x0(%esi),%esi

000004a0 <SYSTEM_CREATELISTBOX$LONGINT$SMALLINT$SMALLINT$SMALLINT$SMALLINT$$LONGINT>:
     4a0:	55                   	push   %ebp
     4a1:	89 e5                	mov    %esp,%ebp
     4a3:	83 ec 04             	sub    $0x4,%esp
     4a6:	66 ff 75 08          	pushw  0x8(%ebp)
     4aa:	66 ff 75 0c          	pushw  0xc(%ebp)
     4ae:	66 51                	push   %cx
     4b0:	66 52                	push   %dx
     4b2:	50                   	push   %eax
     4b3:	b8 02 05 01 00       	mov    $0x10502,%eax
     4b8:	cd 34                	int    $0x34
     4ba:	83 c4 0c             	add    $0xc,%esp
     4bd:	c9                   	leave  
     4be:	c2 08 00             	ret    $0x8
     4c1:	8d b4 26 00 00 00 00 	lea    0x0(%esi,%eiz,1),%esi
     4c8:	8d b4 26 00 00 00 00 	lea    0x0(%esi,%eiz,1),%esi
     4cf:	90                   	nop

000004d0 <SYSTEM_LISTBOXADDITEM$LONGINT$SHORTSTRING>:
     4d0:	55                   	push   %ebp
     4d1:	89 e5                	mov    %esp,%ebp
     4d3:	52                   	push   %edx
     4d4:	50                   	push   %eax
     4d5:	b8 02 05 00 01       	mov    $0x1000502,%eax
     4da:	cd 34                	int    $0x34
     4dc:	83 c4 08             	add    $0x8,%esp
     4df:	c9                   	leave  
     4e0:	c3                   	ret    
     4e1:	8d b4 26 00 00 00 00 	lea    0x0(%esi,%eiz,1),%esi
     4e8:	8d b4 26 00 00 00 00 	lea    0x0(%esi,%eiz,1),%esi
     4ef:	90                   	nop

000004f0 <SYSTEM_LISTBOXGETSELINDEX$LONGINT$$WORD>:
     4f0:	55                   	push   %ebp
     4f1:	89 e5                	mov    %esp,%ebp
     4f3:	83 ec 04             	sub    $0x4,%esp
     4f6:	50                   	push   %eax
     4f7:	b8 02 05 00 02       	mov    $0x2000502,%eax
     4fc:	cd 34                	int    $0x34
     4fe:	83 c4 04             	add    $0x4,%esp
     501:	25 ff ff 00 00       	and    $0xffff,%eax
     506:	c9                   	leave  
     507:	c3                   	ret    
     508:	8d b4 26 00 00 00 00 	lea    0x0(%esi,%eiz,1),%esi
     50f:	90                   	nop

00000510 <SYSTEM_LISTBOXCLEAR$LONGINT>:
     510:	55                   	push   %ebp
     511:	89 e5                	mov    %esp,%ebp
     513:	50                   	push   %eax
     514:	b8 02 05 00 03       	mov    $0x3000502,%eax
     519:	cd 34                	int    $0x34
     51b:	83 c4 04             	add    $0x4,%esp
     51e:	c9                   	leave  
     51f:	c3                   	ret    

00000520 <SYSTEM_CREATEPOPUPMENU$LONGINT$SMALLINT$SMALLINT$SMALLINT$SMALLINT$$LONGINT>:
     520:	55                   	push   %ebp
     521:	89 e5                	mov    %esp,%ebp
     523:	83 ec 04             	sub    $0x4,%esp
     526:	66 ff 75 08          	pushw  0x8(%ebp)
     52a:	66 ff 75 0c          	pushw  0xc(%ebp)
     52e:	66 51                	push   %cx
     530:	66 52                	push   %dx
     532:	50                   	push   %eax
     533:	b8 02 06 01 00       	mov    $0x10602,%eax
     538:	cd 34                	int    $0x34
     53a:	83 c4 0c             	add    $0xc,%esp
     53d:	c9                   	leave  
     53e:	c2 08 00             	ret    $0x8
     541:	8d b4 26 00 00 00 00 	lea    0x0(%esi,%eiz,1),%esi
     548:	8d b4 26 00 00 00 00 	lea    0x0(%esi,%eiz,1),%esi
     54f:	90                   	nop

00000550 <SYSTEM_SHOWPOPUPMENU$LONGINT>:
     550:	55                   	push   %ebp
     551:	89 e5                	mov    %esp,%ebp
     553:	50                   	push   %eax
     554:	b8 02 06 08 00       	mov    $0x80602,%eax
     559:	cd 34                	int    $0x34
     55b:	83 c4 04             	add    $0x4,%esp
     55e:	c9                   	leave  
     55f:	c3                   	ret    

00000560 <SYSTEM_HIDEPOPUPMENU$LONGINT>:
     560:	55                   	push   %ebp
     561:	89 e5                	mov    %esp,%ebp
     563:	50                   	push   %eax
     564:	b8 02 06 20 00       	mov    $0x200602,%eax
     569:	cd 34                	int    $0x34
     56b:	83 c4 04             	add    $0x4,%esp
     56e:	c9                   	leave  
     56f:	c3                   	ret    

00000570 <SYSTEM_POPUPMENUADDITEM$LONGINT$SHORTSTRING>:
     570:	55                   	push   %ebp
     571:	89 e5                	mov    %esp,%ebp
     573:	52                   	push   %edx
     574:	50                   	push   %eax
     575:	b8 02 06 00 01       	mov    $0x1000602,%eax
     57a:	cd 34                	int    $0x34
     57c:	83 c4 08             	add    $0x8,%esp
     57f:	c9                   	leave  
     580:	c3                   	ret    
     581:	8d b4 26 00 00 00 00 	lea    0x0(%esi,%eiz,1),%esi
     588:	8d b4 26 00 00 00 00 	lea    0x0(%esi,%eiz,1),%esi
     58f:	90                   	nop

00000590 <SYSTEM_POPUPMENUGETSELINDEX$LONGINT$$SMALLINT>:
     590:	55                   	push   %ebp
     591:	89 e5                	mov    %esp,%ebp
     593:	83 ec 04             	sub    $0x4,%esp
     596:	50                   	push   %eax
     597:	b8 02 06 00 02       	mov    $0x2000602,%eax
     59c:	cd 34                	int    $0x34
     59e:	25 ff ff 00 00       	and    $0xffff,%eax
     5a3:	83 c4 04             	add    $0x4,%esp
     5a6:	c9                   	leave  
     5a7:	c3                   	ret    
     5a8:	8d b4 26 00 00 00 00 	lea    0x0(%esi,%eiz,1),%esi
     5af:	90                   	nop

000005b0 <SYSTEM_CREATEMEMO$LONGINT$SMALLINT$SMALLINT$SMALLINT$SMALLINT$$LONGINT>:
     5b0:	55                   	push   %ebp
     5b1:	89 e5                	mov    %esp,%ebp
     5b3:	83 ec 04             	sub    $0x4,%esp
     5b6:	66 ff 75 08          	pushw  0x8(%ebp)
     5ba:	66 ff 75 0c          	pushw  0xc(%ebp)
     5be:	66 51                	push   %cx
     5c0:	66 52                	push   %dx
     5c2:	50                   	push   %eax
     5c3:	b8 02 07 01 00       	mov    $0x10702,%eax
     5c8:	cd 34                	int    $0x34
     5ca:	83 c4 0c             	add    $0xc,%esp
     5cd:	c9                   	leave  
     5ce:	c2 08 00             	ret    $0x8
     5d1:	8d b4 26 00 00 00 00 	lea    0x0(%esi,%eiz,1),%esi
     5d8:	8d b4 26 00 00 00 00 	lea    0x0(%esi,%eiz,1),%esi
     5df:	90                   	nop

000005e0 <SYSTEM_SHOWMEMO$LONGINT>:
     5e0:	55                   	push   %ebp
     5e1:	89 e5                	mov    %esp,%ebp
     5e3:	50                   	push   %eax
     5e4:	b8 02 07 08 00       	mov    $0x80702,%eax
     5e9:	cd 34                	int    $0x34
     5eb:	83 c4 04             	add    $0x4,%esp
     5ee:	c9                   	leave  
     5ef:	c3                   	ret    

000005f0 <SYSTEM_MEMOADDTEXT$LONGINT$PCHAR>:
     5f0:	55                   	push   %ebp
     5f1:	89 e5                	mov    %esp,%ebp
     5f3:	52                   	push   %edx
     5f4:	50                   	push   %eax
     5f5:	b8 02 07 00 01       	mov    $0x1000702,%eax
     5fa:	cd 34                	int    $0x34
     5fc:	83 c4 08             	add    $0x8,%esp
     5ff:	c9                   	leave  
     600:	c3                   	ret    
     601:	8d b4 26 00 00 00 00 	lea    0x0(%esi,%eiz,1),%esi
     608:	8d b4 26 00 00 00 00 	lea    0x0(%esi,%eiz,1),%esi
     60f:	90                   	nop

00000610 <SYSTEM_GETEVENT$PEVENT$$WORD>:
     610:	55                   	push   %ebp
     611:	89 e5                	mov    %esp,%ebp
     613:	83 ec 04             	sub    $0x4,%esp
     616:	50                   	push   %eax
     617:	b8 03 01 00 00       	mov    $0x103,%eax
     61c:	cd 34                	int    $0x34
     61e:	83 c4 04             	add    $0x4,%esp
     621:	c9                   	leave  
     622:	c3                   	ret    
     623:	8d b4 26 00 00 00 00 	lea    0x0(%esi,%eiz,1),%esi
     62a:	8d b6 00 00 00 00    	lea    0x0(%esi),%esi

00000630 <SYSTEM_WAITEVENT$PEVENT>:
     630:	55                   	push   %ebp
     631:	89 e5                	mov    %esp,%ebp
     633:	50                   	push   %eax
     634:	b8 03 02 00 00       	mov    $0x203,%eax
     639:	cd 34                	int    $0x34
     63b:	83 c4 04             	add    $0x4,%esp
     63e:	c9                   	leave  
     63f:	c3                   	ret    

00000640 <SYSTEM_FINDFIRST$SHORTSTRING$WORD$TSEARCHREC$$SMALLINT>:
     640:	55                   	push   %ebp
     641:	89 e5                	mov    %esp,%ebp
     643:	83 ec 04             	sub    $0x4,%esp
     646:	51                   	push   %ecx
     647:	66 52                	push   %dx
     649:	50                   	push   %eax
     64a:	b8 04 02 00 00       	mov    $0x204,%eax
     64f:	cd 34                	int    $0x34
     651:	83 c4 0a             	add    $0xa,%esp
     654:	c9                   	leave  
     655:	c3                   	ret    
     656:	8d b4 26 00 00 00 00 	lea    0x0(%esi,%eiz,1),%esi
     65d:	8d 76 00             	lea    0x0(%esi),%esi

00000660 <SYSTEM_FINDNEXT$TSEARCHREC$$SMALLINT>:
     660:	55                   	push   %ebp
     661:	89 e5                	mov    %esp,%ebp
     663:	83 ec 04             	sub    $0x4,%esp
     666:	50                   	push   %eax
     667:	b8 04 03 00 00       	mov    $0x304,%eax
     66c:	cd 34                	int    $0x34
     66e:	83 c4 04             	add    $0x4,%esp
     671:	c9                   	leave  
     672:	c3                   	ret    
     673:	8d b4 26 00 00 00 00 	lea    0x0(%esi,%eiz,1),%esi
     67a:	8d b6 00 00 00 00    	lea    0x0(%esi),%esi

00000680 <SYSTEM_FINDCLOSE$TSEARCHREC$$SMALLINT>:
     680:	55                   	push   %ebp
     681:	89 e5                	mov    %esp,%ebp
     683:	83 ec 04             	sub    $0x4,%esp
     686:	50                   	push   %eax
     687:	b8 04 04 00 00       	mov    $0x404,%eax
     68c:	cd 34                	int    $0x34
     68e:	83 c4 04             	add    $0x4,%esp
     691:	c9                   	leave  
     692:	c3                   	ret    
     693:	8d b4 26 00 00 00 00 	lea    0x0(%esi,%eiz,1),%esi
     69a:	8d b6 00 00 00 00    	lea    0x0(%esi),%esi

000006a0 <SYSTEM_ASSIGNFILE$LONGINT$SHORTSTRING>:
     6a0:	55                   	push   %ebp
     6a1:	89 e5                	mov    %esp,%ebp
     6a3:	52                   	push   %edx
     6a4:	50                   	push   %eax
     6a5:	b8 04 05 00 00       	mov    $0x504,%eax
     6aa:	cd 34                	int    $0x34
     6ac:	83 c4 08             	add    $0x8,%esp
     6af:	c9                   	leave  
     6b0:	c3                   	ret    
     6b1:	8d b4 26 00 00 00 00 	lea    0x0(%esi,%eiz,1),%esi
     6b8:	8d b4 26 00 00 00 00 	lea    0x0(%esi,%eiz,1),%esi
     6bf:	90                   	nop

000006c0 <SYSTEM_RESET$LONGINT>:
     6c0:	55                   	push   %ebp
     6c1:	89 e5                	mov    %esp,%ebp
     6c3:	50                   	push   %eax
     6c4:	b8 04 06 00 00       	mov    $0x604,%eax
     6c9:	cd 34                	int    $0x34
     6cb:	83 c4 04             	add    $0x4,%esp
     6ce:	c9                   	leave  
     6cf:	c3                   	ret    

000006d0 <SYSTEM_IORESULT$$SMALLINT>:
     6d0:	83 ec 04             	sub    $0x4,%esp
     6d3:	b8 04 07 00 00       	mov    $0x704,%eax
     6d8:	cd 34                	int    $0x34
     6da:	83 c4 04             	add    $0x4,%esp
     6dd:	c3                   	ret    
     6de:	89 f6                	mov    %esi,%esi

000006e0 <SYSTEM_EOF$LONGINT$$BOOLEAN>:
     6e0:	55                   	push   %ebp
     6e1:	89 e5                	mov    %esp,%ebp
     6e3:	83 ec 04             	sub    $0x4,%esp
     6e6:	50                   	push   %eax
     6e7:	b8 04 08 00 00       	mov    $0x804,%eax
     6ec:	cd 34                	int    $0x34
     6ee:	83 c4 04             	add    $0x4,%esp
     6f1:	c9                   	leave  
     6f2:	c3                   	ret    
     6f3:	8d b4 26 00 00 00 00 	lea    0x0(%esi,%eiz,1),%esi
     6fa:	8d b6 00 00 00 00    	lea    0x0(%esi),%esi

00000700 <SYSTEM_FILESIZE$LONGINT$$SMALLINT>:
     700:	55                   	push   %ebp
     701:	89 e5                	mov    %esp,%ebp
     703:	83 ec 04             	sub    $0x4,%esp
     706:	50                   	push   %eax
     707:	b8 04 09 00 00       	mov    $0x904,%eax
     70c:	cd 34                	int    $0x34
     70e:	83 c4 04             	add    $0x4,%esp
     711:	c9                   	leave  
     712:	c3                   	ret    
     713:	8d b4 26 00 00 00 00 	lea    0x0(%esi,%eiz,1),%esi
     71a:	8d b6 00 00 00 00    	lea    0x0(%esi),%esi

00000720 <SYSTEM_FILEREAD$LONGINT$POINTER>:
     720:	55                   	push   %ebp
     721:	89 e5                	mov    %esp,%ebp
     723:	52                   	push   %edx
     724:	50                   	push   %eax
     725:	b8 04 0a 00 00       	mov    $0xa04,%eax
     72a:	cd 34                	int    $0x34
     72c:	83 c4 08             	add    $0x8,%esp
     72f:	c9                   	leave  
     730:	c3                   	ret    
     731:	8d b4 26 00 00 00 00 	lea    0x0(%esi,%eiz,1),%esi
     738:	8d b4 26 00 00 00 00 	lea    0x0(%esi,%eiz,1),%esi
     73f:	90                   	nop

00000740 <SYSTEM_CLOSEFILE$LONGINT>:
     740:	55                   	push   %ebp
     741:	89 e5                	mov    %esp,%ebp
     743:	50                   	push   %eax
     744:	b8 04 0b 00 00       	mov    $0xb04,%eax
     749:	cd 34                	int    $0x34
     74b:	83 c4 04             	add    $0x4,%esp
     74e:	c9                   	leave  
     74f:	c3                   	ret    

00000750 <SYSTEM_WRITECHAR$LONGINT$SMALLINT$SMALLINT$LONGWORD$CHAR>:
     750:	55                   	push   %ebp
     751:	89 e5                	mov    %esp,%ebp
     753:	83 ec 04             	sub    $0x4,%esp
     756:	89 45 fc             	mov    %eax,-0x4(%ebp)
     759:	66 0f b6 45 08       	movzbw 0x8(%ebp),%ax
     75e:	66 50                	push   %ax
     760:	ff 75 0c             	pushl  0xc(%ebp)
     763:	66 51                	push   %cx
     765:	66 52                	push   %dx
     767:	ff 75 fc             	pushl  -0x4(%ebp)
     76a:	b8 05 01 00 00       	mov    $0x105,%eax
     76f:	cd 34                	int    $0x34
     771:	83 c4 0e             	add    $0xe,%esp
     774:	c9                   	leave  
     775:	c2 08 00             	ret    $0x8
     778:	8d b4 26 00 00 00 00 	lea    0x0(%esi,%eiz,1),%esi
     77f:	90                   	nop

00000780 <SYSTEM_WRITETEXT$LONGINT$SMALLINT$SMALLINT$LONGWORD$SHORTSTRING>:
     780:	55                   	push   %ebp
     781:	89 e5                	mov    %esp,%ebp
     783:	ff 75 08             	pushl  0x8(%ebp)
     786:	ff 75 0c             	pushl  0xc(%ebp)
     789:	66 51                	push   %cx
     78b:	66 52                	push   %dx
     78d:	50                   	push   %eax
     78e:	b8 05 02 00 00       	mov    $0x205,%eax
     793:	cd 34                	int    $0x34
     795:	83 c4 10             	add    $0x10,%esp
     798:	c9                   	leave  
     799:	c2 08 00             	ret    $0x8
     79c:	8d 74 26 00          	lea    0x0(%esi,%eiz,1),%esi

000007a0 <SYSTEM_WRITEHEX$LONGINT$SMALLINT$SMALLINT$LONGWORD$BOOLEAN$BYTE$LONGWORD>:
     7a0:	55                   	push   %ebp
     7a1:	89 e5                	mov    %esp,%ebp
     7a3:	83 ec 04             	sub    $0x4,%esp
     7a6:	89 45 fc             	mov    %eax,-0x4(%ebp)
     7a9:	ff 75 08             	pushl  0x8(%ebp)
     7ac:	66 0f b6 45 0c       	movzbw 0xc(%ebp),%ax
     7b1:	66 50                	push   %ax
     7b3:	66 0f b6 45 10       	movzbw 0x10(%ebp),%ax
     7b8:	66 50                	push   %ax
     7ba:	ff 75 14             	pushl  0x14(%ebp)
     7bd:	66 51                	push   %cx
     7bf:	66 52                	push   %dx
     7c1:	ff 75 fc             	pushl  -0x4(%ebp)
     7c4:	b8 05 03 00 00       	mov    $0x305,%eax
     7c9:	cd 34                	int    $0x34
     7cb:	83 c4 14             	add    $0x14,%esp
     7ce:	c9                   	leave  
     7cf:	c2 10 00             	ret    $0x10
     7d2:	8d b4 26 00 00 00 00 	lea    0x0(%esi,%eiz,1),%esi
     7d9:	8d b4 26 00 00 00 00 	lea    0x0(%esi,%eiz,1),%esi

000007e0 <SYSTEM_WRITETIME$LONGINT$SMALLINT$SMALLINT$LONGWORD$LONGWORD>:
     7e0:	55                   	push   %ebp
     7e1:	89 e5                	mov    %esp,%ebp
     7e3:	ff 75 08             	pushl  0x8(%ebp)
     7e6:	ff 75 0c             	pushl  0xc(%ebp)
     7e9:	66 51                	push   %cx
     7eb:	66 52                	push   %dx
     7ed:	50                   	push   %eax
     7ee:	b8 05 04 00 00       	mov    $0x405,%eax
     7f3:	cd 34                	int    $0x34
     7f5:	83 c4 10             	add    $0x10,%esp
     7f8:	c9                   	leave  
     7f9:	c2 08 00             	ret    $0x8
     7fc:	8d 74 26 00          	lea    0x0(%esi,%eiz,1),%esi

00000800 <SYSTEM_WRITEMAC$LONGINT$SMALLINT$SMALLINT$LONGWORD$PMACADDR>:
     800:	55                   	push   %ebp
     801:	89 e5                	mov    %esp,%ebp
     803:	ff 75 08             	pushl  0x8(%ebp)
     806:	ff 75 0c             	pushl  0xc(%ebp)
     809:	66 51                	push   %cx
     80b:	66 52                	push   %dx
     80d:	50                   	push   %eax
     80e:	b8 05 05 00 00       	mov    $0x505,%eax
     813:	cd 34                	int    $0x34
     815:	83 c4 10             	add    $0x10,%esp
     818:	c9                   	leave  
     819:	c2 08 00             	ret    $0x8
     81c:	8d 74 26 00          	lea    0x0(%esi,%eiz,1),%esi

00000820 <SYSTEM_WRITEIP$LONGINT$SMALLINT$SMALLINT$LONGWORD$PIPADDR>:
     820:	55                   	push   %ebp
     821:	89 e5                	mov    %esp,%ebp
     823:	ff 75 08             	pushl  0x8(%ebp)
     826:	ff 75 0c             	pushl  0xc(%ebp)
     829:	66 51                	push   %cx
     82b:	66 52                	push   %dx
     82d:	50                   	push   %eax
     82e:	b8 05 06 00 00       	mov    $0x605,%eax
     833:	cd 34                	int    $0x34
     835:	83 c4 10             	add    $0x10,%esp
     838:	c9                   	leave  
     839:	c2 08 00             	ret    $0x8
     83c:	8d 74 26 00          	lea    0x0(%esi,%eiz,1),%esi

00000840 <SYSTEM_GETTIME$$LONGWORD>:
     840:	83 ec 04             	sub    $0x4,%esp
     843:	b8 06 01 00 00       	mov    $0x106,%eax
     848:	cd 34                	int    $0x34
     84a:	83 c4 04             	add    $0x4,%esp
     84d:	c3                   	ret    
     84e:	89 f6                	mov    %esi,%esi

00000850 <SYSTEM_DRAWSHAPE$LONGINT$SMALLINT$SMALLINT$SMALLINT$SMALLINT$LONGWORD>:
     850:	55                   	push   %ebp
     851:	89 e5                	mov    %esp,%ebp
     853:	ff 75 08             	pushl  0x8(%ebp)
     856:	66 ff 75 0c          	pushw  0xc(%ebp)
     85a:	66 ff 75 10          	pushw  0x10(%ebp)
     85e:	66 51                	push   %cx
     860:	66 52                	push   %dx
     862:	50                   	push   %eax
     863:	b8 08 01 00 00       	mov    $0x108,%eax
     868:	cd 34                	int    $0x34
     86a:	83 c4 10             	add    $0x10,%esp
     86d:	c9                   	leave  
     86e:	c2 0c 00             	ret    $0xc
     871:	8d b4 26 00 00 00 00 	lea    0x0(%esi,%eiz,1),%esi
     878:	8d b4 26 00 00 00 00 	lea    0x0(%esi,%eiz,1),%esi
     87f:	90                   	nop

00000880 <SYSTEM_CREATETIMER$LONGWORD$$LONGINT>:
     880:	55                   	push   %ebp
     881:	89 e5                	mov    %esp,%ebp
     883:	83 ec 04             	sub    $0x4,%esp
     886:	50                   	push   %eax
     887:	b8 09 01 00 00       	mov    $0x109,%eax
     88c:	cd 34                	int    $0x34
     88e:	83 c4 04             	add    $0x4,%esp
     891:	c9                   	leave  
     892:	c3                   	ret    
     893:	8d b4 26 00 00 00 00 	lea    0x0(%esi,%eiz,1),%esi
     89a:	8d b6 00 00 00 00    	lea    0x0(%esi),%esi

000008a0 <SYSTEM_GETMSGNUMBER$$WORD>:
     8a0:	83 ec 04             	sub    $0x4,%esp
     8a3:	b8 0a 01 00 00       	mov    $0x10a,%eax
     8a8:	cd 34                	int    $0x34
     8aa:	25 ff ff 00 00       	and    $0xffff,%eax
     8af:	83 c4 04             	add    $0x4,%esp
     8b2:	c3                   	ret    
     8b3:	8d b4 26 00 00 00 00 	lea    0x0(%esi,%eiz,1),%esi
     8ba:	8d b6 00 00 00 00    	lea    0x0(%esi),%esi

000008c0 <SYSTEM_GETMSGDETAILS$WORD$POINTER>:
     8c0:	55                   	push   %ebp
     8c1:	89 e5                	mov    %esp,%ebp
     8c3:	52                   	push   %edx
     8c4:	66 50                	push   %ax
     8c6:	b8 0a 02 00 00       	mov    $0x20a,%eax
     8cb:	cd 34                	int    $0x34
     8cd:	83 c4 06             	add    $0x6,%esp
     8d0:	c9                   	leave  
     8d1:	c3                   	ret    
     8d2:	8d b4 26 00 00 00 00 	lea    0x0(%esi,%eiz,1),%esi
     8d9:	8d b4 26 00 00 00 00 	lea    0x0(%esi,%eiz,1),%esi

000008e0 <SYSTEM_MSG_S$SHORTSTRING>:
     8e0:	55                   	push   %ebp
     8e1:	89 e5                	mov    %esp,%ebp
     8e3:	50                   	push   %eax
     8e4:	b8 0a 03 00 00       	mov    $0x30a,%eax
     8e9:	cd 34                	int    $0x34
     8eb:	83 c4 04             	add    $0x4,%esp
     8ee:	c9                   	leave  
     8ef:	c3                   	ret    

000008f0 <SYSTEM_MSG_SH$SHORTSTRING$LONGWORD$WORD>:
     8f0:	55                   	push   %ebp
     8f1:	89 e5                	mov    %esp,%ebp
     8f3:	66 51                	push   %cx
     8f5:	52                   	push   %edx
     8f6:	50                   	push   %eax
     8f7:	b8 0a 04 00 00       	mov    $0x40a,%eax
     8fc:	cd 34                	int    $0x34
     8fe:	83 c4 0a             	add    $0xa,%esp
     901:	c9                   	leave  
     902:	c3                   	ret    
     903:	8d b4 26 00 00 00 00 	lea    0x0(%esi,%eiz,1),%esi
     90a:	8d b6 00 00 00 00    	lea    0x0(%esi),%esi

00000910 <SYSTEM_GETKERNELMEMINFO$POINTER$POINTER$POINTER>:
     910:	55                   	push   %ebp
     911:	89 e5                	mov    %esp,%ebp
     913:	51                   	push   %ecx
     914:	52                   	push   %edx
     915:	50                   	push   %eax
     916:	b8 0b 01 00 00       	mov    $0x10b,%eax
     91b:	cd 34                	int    $0x34
     91d:	83 c4 0c             	add    $0xc,%esp
     920:	c9                   	leave  
     921:	c3                   	ret    
     922:	8d b4 26 00 00 00 00 	lea    0x0(%esi,%eiz,1),%esi
     929:	8d b4 26 00 00 00 00 	lea    0x0(%esi,%eiz,1),%esi

00000930 <SYSTEM_GETGENERALMEMINFO$POINTER$POINTER$POINTER$POINTER$POINTER>:
     930:	55                   	push   %ebp
     931:	89 e5                	mov    %esp,%ebp
     933:	ff 75 08             	pushl  0x8(%ebp)
     936:	ff 75 0c             	pushl  0xc(%ebp)
     939:	51                   	push   %ecx
     93a:	52                   	push   %edx
     93b:	50                   	push   %eax
     93c:	b8 0b 02 00 00       	mov    $0x20b,%eax
     941:	cd 34                	int    $0x34
     943:	83 c4 14             	add    $0x14,%esp
     946:	c9                   	leave  
     947:	c2 08 00             	ret    $0x8
     94a:	8d b6 00 00 00 00    	lea    0x0(%esi),%esi

00000950 <SYSTEM_READMEMADDRESS$POINTER$POINTER$LONGWORD>:
     950:	55                   	push   %ebp
     951:	89 e5                	mov    %esp,%ebp
     953:	51                   	push   %ecx
     954:	52                   	push   %edx
     955:	50                   	push   %eax
     956:	b8 0b 03 00 00       	mov    $0x30b,%eax
     95b:	cd 34                	int    $0x34
     95d:	83 c4 0c             	add    $0xc,%esp
     960:	c9                   	leave  
     961:	c3                   	ret    
     962:	8d b4 26 00 00 00 00 	lea    0x0(%esi,%eiz,1),%esi
     969:	8d b4 26 00 00 00 00 	lea    0x0(%esi,%eiz,1),%esi

00000970 <SYSTEM_EXECUTE$SHORTSTRING$$LONGINT>:
     970:	55                   	push   %ebp
     971:	89 e5                	mov    %esp,%ebp
     973:	83 ec 04             	sub    $0x4,%esp
     976:	50                   	push   %eax
     977:	b8 0c 01 00 00       	mov    $0x10c,%eax
     97c:	cd 34                	int    $0x34
     97e:	83 c4 04             	add    $0x4,%esp
     981:	c9                   	leave  
     982:	c3                   	ret    
     983:	8d b4 26 00 00 00 00 	lea    0x0(%esi,%eiz,1),%esi
     98a:	8d b6 00 00 00 00    	lea    0x0(%esi),%esi

00000990 <SYSTEM_TERMINATE>:
     990:	b8 0c 02 00 00       	mov    $0x20c,%eax
     995:	cd 34                	int    $0x34
     997:	c3                   	ret    
     998:	8d b4 26 00 00 00 00 	lea    0x0(%esi,%eiz,1),%esi
     99f:	90                   	nop

000009a0 <SYSTEM_GETPROCESSINFO$POINTER$POINTER>:
     9a0:	55                   	push   %ebp
     9a1:	89 e5                	mov    %esp,%ebp
     9a3:	52                   	push   %edx
     9a4:	50                   	push   %eax
     9a5:	b8 0c 03 00 00       	mov    $0x30c,%eax
     9aa:	cd 34                	int    $0x34
     9ac:	83 c4 08             	add    $0x8,%esp
     9af:	c9                   	leave  
     9b0:	c3                   	ret    
     9b1:	8d b4 26 00 00 00 00 	lea    0x0(%esi,%eiz,1),%esi
     9b8:	8d b4 26 00 00 00 00 	lea    0x0(%esi,%eiz,1),%esi
     9bf:	90                   	nop

000009c0 <SYSTEM_GETPROCESSDETAILS$SMALLINT$POINTER$$LONGINT>:
     9c0:	55                   	push   %ebp
     9c1:	89 e5                	mov    %esp,%ebp
     9c3:	83 ec 04             	sub    $0x4,%esp
     9c6:	52                   	push   %edx
     9c7:	66 50                	push   %ax
     9c9:	b8 0c 04 00 00       	mov    $0x40c,%eax
     9ce:	cd 34                	int    $0x34
     9d0:	83 c4 06             	add    $0x6,%esp
     9d3:	c9                   	leave  
     9d4:	c3                   	ret    
     9d5:	8d b4 26 00 00 00 00 	lea    0x0(%esi,%eiz,1),%esi
     9dc:	8d 74 26 00          	lea    0x0(%esi,%eiz,1),%esi

000009e0 <SYSTEM_GETPROCESSCONTEXT$SMALLINT$POINTER$$LONGINT>:
     9e0:	55                   	push   %ebp
     9e1:	89 e5                	mov    %esp,%ebp
     9e3:	83 ec 04             	sub    $0x4,%esp
     9e6:	52                   	push   %edx
     9e7:	66 50                	push   %ax
     9e9:	b8 0c 05 00 00       	mov    $0x50c,%eax
     9ee:	cd 34                	int    $0x34
     9f0:	83 c4 06             	add    $0x6,%esp
     9f3:	c9                   	leave  
     9f4:	c3                   	ret    
     9f5:	8d b4 26 00 00 00 00 	lea    0x0(%esi,%eiz,1),%esi
     9fc:	8d 74 26 00          	lea    0x0(%esi,%eiz,1),%esi

00000a00 <SYSTEM_GETPCIDEVNUMS$$WORD>:
     a00:	83 ec 04             	sub    $0x4,%esp
     a03:	b8 0d 01 00 00       	mov    $0x10d,%eax
     a08:	cd 34                	int    $0x34
     a0a:	25 ff ff 00 00       	and    $0xffff,%eax
     a0f:	83 c4 04             	add    $0x4,%esp
     a12:	c3                   	ret    
     a13:	8d b4 26 00 00 00 00 	lea    0x0(%esi,%eiz,1),%esi
     a1a:	8d b6 00 00 00 00    	lea    0x0(%esi),%esi

00000a20 <SYSTEM_GETPCIDEVINFO$WORD$POINTER>:
     a20:	55                   	push   %ebp
     a21:	89 e5                	mov    %esp,%ebp
     a23:	52                   	push   %edx
     a24:	66 50                	push   %ax
     a26:	b8 0d 02 00 00       	mov    $0x20d,%eax
     a2b:	cd 34                	int    $0x34
     a2d:	83 c4 06             	add    $0x6,%esp
     a30:	c9                   	leave  
     a31:	c3                   	ret    
     a32:	8d b4 26 00 00 00 00 	lea    0x0(%esi,%eiz,1),%esi
     a39:	8d b4 26 00 00 00 00 	lea    0x0(%esi,%eiz,1),%esi

00000a40 <SYSTEM_PCIREADBYTE$BYTE$BYTE$BYTE$BYTE$$BYTE>:
     a40:	55                   	push   %ebp
     a41:	89 e5                	mov    %esp,%ebp
     a43:	83 ec 08             	sub    $0x8,%esp
     a46:	88 45 f8             	mov    %al,-0x8(%ebp)
     a49:	66 0f b6 45 08       	movzbw 0x8(%ebp),%ax
     a4e:	66 50                	push   %ax
     a50:	66 0f b6 c9          	movzbw %cl,%cx
     a54:	66 51                	push   %cx
     a56:	66 0f b6 d2          	movzbw %dl,%dx
     a5a:	66 52                	push   %dx
     a5c:	66 0f b6 45 f8       	movzbw -0x8(%ebp),%ax
     a61:	66 50                	push   %ax
     a63:	b8 0d 03 00 00       	mov    $0x30d,%eax
     a68:	cd 34                	int    $0x34
     a6a:	83 c4 08             	add    $0x8,%esp
     a6d:	25 ff 00 00 00       	and    $0xff,%eax
     a72:	c9                   	leave  
     a73:	c2 04 00             	ret    $0x4
     a76:	8d b4 26 00 00 00 00 	lea    0x0(%esi,%eiz,1),%esi
     a7d:	8d 76 00             	lea    0x0(%esi),%esi

00000a80 <SYSTEM_PCIREADWORD$BYTE$BYTE$BYTE$BYTE$$WORD>:
     a80:	55                   	push   %ebp
     a81:	89 e5                	mov    %esp,%ebp
     a83:	83 ec 08             	sub    $0x8,%esp
     a86:	88 45 f8             	mov    %al,-0x8(%ebp)
     a89:	66 0f b6 45 08       	movzbw 0x8(%ebp),%ax
     a8e:	66 50                	push   %ax
     a90:	66 0f b6 c9          	movzbw %cl,%cx
     a94:	66 51                	push   %cx
     a96:	66 0f b6 d2          	movzbw %dl,%dx
     a9a:	66 52                	push   %dx
     a9c:	66 0f b6 45 f8       	movzbw -0x8(%ebp),%ax
     aa1:	66 50                	push   %ax
     aa3:	b8 0d 04 00 00       	mov    $0x40d,%eax
     aa8:	cd 34                	int    $0x34
     aaa:	83 c4 08             	add    $0x8,%esp
     aad:	25 ff ff 00 00       	and    $0xffff,%eax
     ab2:	c9                   	leave  
     ab3:	c2 04 00             	ret    $0x4
     ab6:	8d b4 26 00 00 00 00 	lea    0x0(%esi,%eiz,1),%esi
     abd:	8d 76 00             	lea    0x0(%esi),%esi

00000ac0 <SYSTEM_PCIREADDWORD$BYTE$BYTE$BYTE$BYTE$$LONGWORD>:
     ac0:	55                   	push   %ebp
     ac1:	89 e5                	mov    %esp,%ebp
     ac3:	83 ec 08             	sub    $0x8,%esp
     ac6:	88 45 f8             	mov    %al,-0x8(%ebp)
     ac9:	66 0f b6 45 08       	movzbw 0x8(%ebp),%ax
     ace:	66 50                	push   %ax
     ad0:	66 0f b6 c9          	movzbw %cl,%cx
     ad4:	66 51                	push   %cx
     ad6:	66 0f b6 d2          	movzbw %dl,%dx
     ada:	66 52                	push   %dx
     adc:	66 0f b6 45 f8       	movzbw -0x8(%ebp),%ax
     ae1:	66 50                	push   %ax
     ae3:	b8 0d 05 00 00       	mov    $0x50d,%eax
     ae8:	cd 34                	int    $0x34
     aea:	83 c4 08             	add    $0x8,%esp
     aed:	c9                   	leave  
     aee:	c2 04 00             	ret    $0x4
     af1:	8d b4 26 00 00 00 00 	lea    0x0(%esi,%eiz,1),%esi
     af8:	8d b4 26 00 00 00 00 	lea    0x0(%esi,%eiz,1),%esi
     aff:	90                   	nop

00000b00 <SYSTEM_PCIWRITEBYTE$BYTE$BYTE$BYTE$BYTE$BYTE>:
     b00:	55                   	push   %ebp
     b01:	89 e5                	mov    %esp,%ebp
     b03:	83 ec 04             	sub    $0x4,%esp
     b06:	88 45 fc             	mov    %al,-0x4(%ebp)
     b09:	66 0f b6 45 08       	movzbw 0x8(%ebp),%ax
     b0e:	66 50                	push   %ax
     b10:	66 0f b6 45 0c       	movzbw 0xc(%ebp),%ax
     b15:	66 50                	push   %ax
     b17:	66 0f b6 c9          	movzbw %cl,%cx
     b1b:	66 51                	push   %cx
     b1d:	66 0f b6 d2          	movzbw %dl,%dx
     b21:	66 52                	push   %dx
     b23:	66 0f b6 45 fc       	movzbw -0x4(%ebp),%ax
     b28:	66 50                	push   %ax
     b2a:	b8 0d 06 00 00       	mov    $0x60d,%eax
     b2f:	cd 34                	int    $0x34
     b31:	83 c4 0a             	add    $0xa,%esp
     b34:	c9                   	leave  
     b35:	c2 08 00             	ret    $0x8
     b38:	8d b4 26 00 00 00 00 	lea    0x0(%esi,%eiz,1),%esi
     b3f:	90                   	nop

00000b40 <SYSTEM_PCIWRITEWORD$BYTE$BYTE$BYTE$BYTE$WORD>:
     b40:	55                   	push   %ebp
     b41:	89 e5                	mov    %esp,%ebp
     b43:	83 ec 04             	sub    $0x4,%esp
     b46:	88 45 fc             	mov    %al,-0x4(%ebp)
     b49:	66 ff 75 08          	pushw  0x8(%ebp)
     b4d:	66 0f b6 45 0c       	movzbw 0xc(%ebp),%ax
     b52:	66 50                	push   %ax
     b54:	66 0f b6 c9          	movzbw %cl,%cx
     b58:	66 51                	push   %cx
     b5a:	66 0f b6 d2          	movzbw %dl,%dx
     b5e:	66 52                	push   %dx
     b60:	66 0f b6 45 fc       	movzbw -0x4(%ebp),%ax
     b65:	66 50                	push   %ax
     b67:	b8 0d 07 00 00       	mov    $0x70d,%eax
     b6c:	cd 34                	int    $0x34
     b6e:	83 c4 0a             	add    $0xa,%esp
     b71:	c9                   	leave  
     b72:	c2 08 00             	ret    $0x8
     b75:	8d b4 26 00 00 00 00 	lea    0x0(%esi,%eiz,1),%esi
     b7c:	8d 74 26 00          	lea    0x0(%esi,%eiz,1),%esi

00000b80 <SYSTEM_PCIWRITEDWORD$BYTE$BYTE$BYTE$BYTE$LONGWORD>:
     b80:	55                   	push   %ebp
     b81:	89 e5                	mov    %esp,%ebp
     b83:	83 ec 04             	sub    $0x4,%esp
     b86:	88 45 fc             	mov    %al,-0x4(%ebp)
     b89:	ff 75 08             	pushl  0x8(%ebp)
     b8c:	66 0f b6 45 0c       	movzbw 0xc(%ebp),%ax
     b91:	66 50                	push   %ax
     b93:	66 0f b6 c9          	movzbw %cl,%cx
     b97:	66 51                	push   %cx
     b99:	66 0f b6 d2          	movzbw %dl,%dx
     b9d:	66 52                	push   %dx
     b9f:	66 0f b6 45 fc       	movzbw -0x4(%ebp),%ax
     ba4:	66 50                	push   %ax
     ba6:	b8 0d 08 00 00       	mov    $0x80d,%eax
     bab:	cd 34                	int    $0x34
     bad:	83 c4 0c             	add    $0xc,%esp
     bb0:	c9                   	leave  
     bb1:	c2 08 00             	ret    $0x8
     bb4:	8d b4 26 00 00 00 00 	lea    0x0(%esi,%eiz,1),%esi
     bbb:	8d 74 26 00          	lea    0x0(%esi,%eiz,1),%esi
     bbf:	90                   	nop

00000bc0 <SYSTEM_GETARPENTRYNUMS$$WORD>:
     bc0:	83 ec 04             	sub    $0x4,%esp
     bc3:	b8 0e 02 01 00       	mov    $0x1020e,%eax
     bc8:	cd 34                	int    $0x34
     bca:	25 ff ff 00 00       	and    $0xffff,%eax
     bcf:	83 c4 04             	add    $0x4,%esp
     bd2:	c3                   	ret    
     bd3:	8d b4 26 00 00 00 00 	lea    0x0(%esi,%eiz,1),%esi
     bda:	8d b6 00 00 00 00    	lea    0x0(%esi),%esi

00000be0 <SYSTEM_GETARPENTRYINFO$WORD$POINTER>:
     be0:	55                   	push   %ebp
     be1:	89 e5                	mov    %esp,%ebp
     be3:	52                   	push   %edx
     be4:	66 50                	push   %ax
     be6:	b8 0e 02 02 00       	mov    $0x2020e,%eax
     beb:	cd 34                	int    $0x34
     bed:	83 c4 06             	add    $0x6,%esp
     bf0:	c9                   	leave  
     bf1:	c3                   	ret    
     bf2:	8d b4 26 00 00 00 00 	lea    0x0(%esi,%eiz,1),%esi
     bf9:	8d b4 26 00 00 00 00 	lea    0x0(%esi,%eiz,1),%esi

00000c00 <FPC_SYS_GETERRNO>:
     c00:	55                   	push   %ebp
     c01:	89 e5                	mov    %esp,%ebp
     c03:	83 ec 04             	sub    $0x4,%esp
     c06:	8b 15 3c 51 02 00    	mov    0x2513c,%edx
     c0c:	85 d2                	test   %edx,%edx
     c0e:	74 09                	je     c19 <FPC_SYS_GETERRNO+0x19>
     c10:	a1 d0 5d 02 00       	mov    0x25dd0,%eax
     c15:	ff d2                	call   *%edx
     c17:	eb 05                	jmp    c1e <FPC_SYS_GETERRNO+0x1e>
     c19:	b8 d4 5d 02 00       	mov    $0x25dd4,%eax
     c1e:	8b 00                	mov    (%eax),%eax
     c20:	89 45 fc             	mov    %eax,-0x4(%ebp)
     c23:	8b 45 fc             	mov    -0x4(%ebp),%eax
     c26:	c9                   	leave  
     c27:	c3                   	ret    
     c28:	8d b4 26 00 00 00 00 	lea    0x0(%esi,%eiz,1),%esi
     c2f:	90                   	nop

00000c30 <FPC_SYS_SETERRNO>:
     c30:	55                   	push   %ebp
     c31:	89 e5                	mov    %esp,%ebp
     c33:	83 ec 04             	sub    $0x4,%esp
     c36:	89 45 fc             	mov    %eax,-0x4(%ebp)
     c39:	8b 15 3c 51 02 00    	mov    0x2513c,%edx
     c3f:	85 d2                	test   %edx,%edx
     c41:	74 09                	je     c4c <FPC_SYS_SETERRNO+0x1c>
     c43:	a1 d0 5d 02 00       	mov    0x25dd0,%eax
     c48:	ff d2                	call   *%edx
     c4a:	eb 05                	jmp    c51 <FPC_SYS_SETERRNO+0x21>
     c4c:	b8 d4 5d 02 00       	mov    $0x25dd4,%eax
     c51:	8b 55 fc             	mov    -0x4(%ebp),%edx
     c54:	89 10                	mov    %edx,(%eax)
     c56:	c9                   	leave  
     c57:	c3                   	ret    
     c58:	8d b4 26 00 00 00 00 	lea    0x0(%esi,%eiz,1),%esi
     c5f:	90                   	nop

00000c60 <SYSTEM_INITSYSCALLINTF>:
     c60:	55                   	push   %ebp
     c61:	89 e5                	mov    %esp,%ebp
     c63:	c9                   	leave  
     c64:	c3                   	ret    
     c65:	8d b4 26 00 00 00 00 	lea    0x0(%esi,%eiz,1),%esi
     c6c:	8d 74 26 00          	lea    0x0(%esi,%eiz,1),%esi

00000c70 <FPC_SYSCALL0>:
     c70:	55                   	push   %ebp
     c71:	89 e5                	mov    %esp,%ebp
     c73:	83 ec 04             	sub    $0x4,%esp
     c76:	53                   	push   %ebx
     c77:	51                   	push   %ecx
     c78:	83 3d a0 08 02 00 00 	cmpl   $0x0,0x208a0
     c7f:	75 04                	jne    c85 <FPC_SYSCALL0+0x15>
     c81:	cd 80                	int    $0x80
     c83:	eb 06                	jmp    c8b <FPC_SYSCALL0+0x1b>
     c85:	ff 15 b0 08 02 00    	call   *0x208b0
     c8b:	59                   	pop    %ecx
     c8c:	5b                   	pop    %ebx
     c8d:	3d 01 f0 ff ff       	cmp    $0xfffff001,%eax
     c92:	72 0c                	jb     ca0 <FPC_SYSCALL0+0x30>
     c94:	f7 d8                	neg    %eax
     c96:	e8 95 ff ff ff       	call   c30 <FPC_SYS_SETERRNO>
     c9b:	b8 ff ff ff ff       	mov    $0xffffffff,%eax
     ca0:	c9                   	leave  
     ca1:	c3                   	ret    
     ca2:	8d b4 26 00 00 00 00 	lea    0x0(%esi,%eiz,1),%esi
     ca9:	8d b4 26 00 00 00 00 	lea    0x0(%esi,%eiz,1),%esi

00000cb0 <FPC_SYSCALL1>:
     cb0:	55                   	push   %ebp
     cb1:	89 e5                	mov    %esp,%ebp
     cb3:	83 ec 04             	sub    $0x4,%esp
     cb6:	53                   	push   %ebx
     cb7:	51                   	push   %ecx
     cb8:	83 3d a0 08 02 00 00 	cmpl   $0x0,0x208a0
     cbf:	75 06                	jne    cc7 <FPC_SYSCALL1+0x17>
     cc1:	89 d3                	mov    %edx,%ebx
     cc3:	cd 80                	int    $0x80
     cc5:	eb 08                	jmp    ccf <FPC_SYSCALL1+0x1f>
     cc7:	89 d3                	mov    %edx,%ebx
     cc9:	ff 15 b0 08 02 00    	call   *0x208b0
     ccf:	59                   	pop    %ecx
     cd0:	5b                   	pop    %ebx
     cd1:	3d 01 f0 ff ff       	cmp    $0xfffff001,%eax
     cd6:	72 0c                	jb     ce4 <FPC_SYSCALL1+0x34>
     cd8:	f7 d8                	neg    %eax
     cda:	e8 51 ff ff ff       	call   c30 <FPC_SYS_SETERRNO>
     cdf:	b8 ff ff ff ff       	mov    $0xffffffff,%eax
     ce4:	c9                   	leave  
     ce5:	c3                   	ret    
     ce6:	8d b4 26 00 00 00 00 	lea    0x0(%esi,%eiz,1),%esi
     ced:	8d 76 00             	lea    0x0(%esi),%esi

00000cf0 <FPC_SYSCALL2>:
     cf0:	55                   	push   %ebp
     cf1:	89 e5                	mov    %esp,%ebp
     cf3:	83 ec 04             	sub    $0x4,%esp
     cf6:	53                   	push   %ebx
     cf7:	52                   	push   %edx
     cf8:	51                   	push   %ecx
     cf9:	83 3d a0 08 02 00 00 	cmpl   $0x0,0x208a0
     d00:	75 07                	jne    d09 <FPC_SYSCALL2+0x19>
     d02:	89 d3                	mov    %edx,%ebx
     d04:	59                   	pop    %ecx
     d05:	cd 80                	int    $0x80
     d07:	eb 09                	jmp    d12 <FPC_SYSCALL2+0x22>
     d09:	89 d3                	mov    %edx,%ebx
     d0b:	59                   	pop    %ecx
     d0c:	ff 15 b0 08 02 00    	call   *0x208b0
     d12:	5a                   	pop    %edx
     d13:	5b                   	pop    %ebx
     d14:	3d 01 f0 ff ff       	cmp    $0xfffff001,%eax
     d19:	72 0c                	jb     d27 <FPC_SYSCALL2+0x37>
     d1b:	f7 d8                	neg    %eax
     d1d:	e8 0e ff ff ff       	call   c30 <FPC_SYS_SETERRNO>
     d22:	b8 ff ff ff ff       	mov    $0xffffffff,%eax
     d27:	c9                   	leave  
     d28:	c3                   	ret    
     d29:	8d b4 26 00 00 00 00 	lea    0x0(%esi,%eiz,1),%esi

00000d30 <FPC_SYSCALL3>:
     d30:	55                   	push   %ebp
     d31:	89 e5                	mov    %esp,%ebp
     d33:	83 ec 08             	sub    $0x8,%esp
     d36:	53                   	push   %ebx
     d37:	52                   	push   %edx
     d38:	51                   	push   %ecx
     d39:	83 3d a0 08 02 00 00 	cmpl   $0x0,0x208a0
     d40:	75 0a                	jne    d4c <FPC_SYSCALL3+0x1c>
     d42:	89 d3                	mov    %edx,%ebx
     d44:	59                   	pop    %ecx
     d45:	8b 55 08             	mov    0x8(%ebp),%edx
     d48:	cd 80                	int    $0x80
     d4a:	eb 0c                	jmp    d58 <FPC_SYSCALL3+0x28>
     d4c:	89 d3                	mov    %edx,%ebx
     d4e:	59                   	pop    %ecx
     d4f:	8b 55 08             	mov    0x8(%ebp),%edx
     d52:	ff 15 b0 08 02 00    	call   *0x208b0
     d58:	5a                   	pop    %edx
     d59:	5b                   	pop    %ebx
     d5a:	3d 01 f0 ff ff       	cmp    $0xfffff001,%eax
     d5f:	72 0c                	jb     d6d <FPC_SYSCALL3+0x3d>
     d61:	f7 d8                	neg    %eax
     d63:	e8 c8 fe ff ff       	call   c30 <FPC_SYS_SETERRNO>
     d68:	b8 ff ff ff ff       	mov    $0xffffffff,%eax
     d6d:	c9                   	leave  
     d6e:	c2 04 00             	ret    $0x4
     d71:	8d b4 26 00 00 00 00 	lea    0x0(%esi,%eiz,1),%esi
     d78:	8d b4 26 00 00 00 00 	lea    0x0(%esi,%eiz,1),%esi
     d7f:	90                   	nop

00000d80 <FPC_SYSCALL4>:
     d80:	55                   	push   %ebp
     d81:	89 e5                	mov    %esp,%ebp
     d83:	83 ec 08             	sub    $0x8,%esp
     d86:	53                   	push   %ebx
     d87:	56                   	push   %esi
     d88:	51                   	push   %ecx
     d89:	83 3d a0 08 02 00 00 	cmpl   $0x0,0x208a0
     d90:	75 0d                	jne    d9f <FPC_SYSCALL4+0x1f>
     d92:	89 d3                	mov    %edx,%ebx
     d94:	59                   	pop    %ecx
     d95:	8b 55 0c             	mov    0xc(%ebp),%edx
     d98:	8b 75 08             	mov    0x8(%ebp),%esi
     d9b:	cd 80                	int    $0x80
     d9d:	eb 0f                	jmp    dae <FPC_SYSCALL4+0x2e>
     d9f:	89 d3                	mov    %edx,%ebx
     da1:	59                   	pop    %ecx
     da2:	8b 55 0c             	mov    0xc(%ebp),%edx
     da5:	8b 75 08             	mov    0x8(%ebp),%esi
     da8:	ff 15 b0 08 02 00    	call   *0x208b0
     dae:	5e                   	pop    %esi
     daf:	5b                   	pop    %ebx
     db0:	3d 01 f0 ff ff       	cmp    $0xfffff001,%eax
     db5:	72 0c                	jb     dc3 <FPC_SYSCALL4+0x43>
     db7:	f7 d8                	neg    %eax
     db9:	e8 72 fe ff ff       	call   c30 <FPC_SYS_SETERRNO>
     dbe:	b8 ff ff ff ff       	mov    $0xffffffff,%eax
     dc3:	c9                   	leave  
     dc4:	c2 08 00             	ret    $0x8
     dc7:	8d b4 26 00 00 00 00 	lea    0x0(%esi,%eiz,1),%esi
     dce:	89 f6                	mov    %esi,%esi

00000dd0 <FPC_SYSCALL5>:
     dd0:	55                   	push   %ebp
     dd1:	89 e5                	mov    %esp,%ebp
     dd3:	83 ec 08             	sub    $0x8,%esp
     dd6:	53                   	push   %ebx
     dd7:	52                   	push   %edx
     dd8:	56                   	push   %esi
     dd9:	57                   	push   %edi
     dda:	51                   	push   %ecx
     ddb:	83 3d a0 08 02 00 00 	cmpl   $0x0,0x208a0
     de2:	75 10                	jne    df4 <FPC_SYSCALL5+0x24>
     de4:	89 d3                	mov    %edx,%ebx
     de6:	59                   	pop    %ecx
     de7:	8b 55 10             	mov    0x10(%ebp),%edx
     dea:	8b 75 0c             	mov    0xc(%ebp),%esi
     ded:	8b 7d 08             	mov    0x8(%ebp),%edi
     df0:	cd 80                	int    $0x80
     df2:	eb 12                	jmp    e06 <FPC_SYSCALL5+0x36>
     df4:	89 d3                	mov    %edx,%ebx
     df6:	59                   	pop    %ecx
     df7:	8b 55 10             	mov    0x10(%ebp),%edx
     dfa:	8b 75 0c             	mov    0xc(%ebp),%esi
     dfd:	8b 7d 08             	mov    0x8(%ebp),%edi
     e00:	ff 15 b0 08 02 00    	call   *0x208b0
     e06:	5f                   	pop    %edi
     e07:	5e                   	pop    %esi
     e08:	5a                   	pop    %edx
     e09:	5b                   	pop    %ebx
     e0a:	3d 01 f0 ff ff       	cmp    $0xfffff001,%eax
     e0f:	72 0c                	jb     e1d <FPC_SYSCALL5+0x4d>
     e11:	f7 d8                	neg    %eax
     e13:	e8 18 fe ff ff       	call   c30 <FPC_SYS_SETERRNO>
     e18:	b8 ff ff ff ff       	mov    $0xffffffff,%eax
     e1d:	c9                   	leave  
     e1e:	c2 0c 00             	ret    $0xc
     e21:	8d b4 26 00 00 00 00 	lea    0x0(%esi,%eiz,1),%esi
     e28:	8d b4 26 00 00 00 00 	lea    0x0(%esi,%eiz,1),%esi
     e2f:	90                   	nop

00000e30 <FPC_SYSCALL6>:
     e30:	55                   	push   %ebp
     e31:	89 e5                	mov    %esp,%ebp
     e33:	83 ec 08             	sub    $0x8,%esp
     e36:	53                   	push   %ebx
     e37:	52                   	push   %edx
     e38:	56                   	push   %esi
     e39:	57                   	push   %edi
     e3a:	55                   	push   %ebp
     e3b:	51                   	push   %ecx
     e3c:	83 3d a0 08 02 00 00 	cmpl   $0x0,0x208a0
     e43:	75 13                	jne    e58 <FPC_SYSCALL6+0x28>
     e45:	89 d3                	mov    %edx,%ebx
     e47:	59                   	pop    %ecx
     e48:	8b 55 14             	mov    0x14(%ebp),%edx
     e4b:	8b 75 10             	mov    0x10(%ebp),%esi
     e4e:	8b 7d 0c             	mov    0xc(%ebp),%edi
     e51:	8b 6d 08             	mov    0x8(%ebp),%ebp
     e54:	cd 80                	int    $0x80
     e56:	eb 15                	jmp    e6d <FPC_SYSCALL6+0x3d>
     e58:	89 d3                	mov    %edx,%ebx
     e5a:	59                   	pop    %ecx
     e5b:	8b 55 14             	mov    0x14(%ebp),%edx
     e5e:	8b 75 10             	mov    0x10(%ebp),%esi
     e61:	8b 7d 0c             	mov    0xc(%ebp),%edi
     e64:	8b 6d 08             	mov    0x8(%ebp),%ebp
     e67:	ff 15 b0 08 02 00    	call   *0x208b0
     e6d:	5d                   	pop    %ebp
     e6e:	5f                   	pop    %edi
     e6f:	5e                   	pop    %esi
     e70:	5a                   	pop    %edx
     e71:	5b                   	pop    %ebx
     e72:	3d 01 f0 ff ff       	cmp    $0xfffff001,%eax
     e77:	72 0c                	jb     e85 <FPC_SYSCALL6+0x55>
     e79:	f7 d8                	neg    %eax
     e7b:	e8 b0 fd ff ff       	call   c30 <FPC_SYS_SETERRNO>
     e80:	b8 ff ff ff ff       	mov    $0xffffffff,%eax
     e85:	c9                   	leave  
     e86:	c2 10 00             	ret    $0x10
     e89:	8d b4 26 00 00 00 00 	lea    0x0(%esi,%eiz,1),%esi

00000e90 <FPC_SYSC_TIME>:
     e90:	55                   	push   %ebp
     e91:	89 e5                	mov    %esp,%ebp
     e93:	83 ec 08             	sub    $0x8,%esp
     e96:	89 45 fc             	mov    %eax,-0x4(%ebp)
     e99:	8b 55 fc             	mov    -0x4(%ebp),%edx
     e9c:	b8 0d 00 00 00       	mov    $0xd,%eax
     ea1:	e8 0a fe ff ff       	call   cb0 <FPC_SYSCALL1>
     ea6:	89 45 f8             	mov    %eax,-0x8(%ebp)
     ea9:	8b 45 f8             	mov    -0x8(%ebp),%eax
     eac:	c9                   	leave  
     ead:	c3                   	ret    
     eae:	89 f6                	mov    %esi,%esi

00000eb0 <FPC_SYSC_OPEN>:
     eb0:	55                   	push   %ebp
     eb1:	89 e5                	mov    %esp,%ebp
     eb3:	83 ec 10             	sub    $0x10,%esp
     eb6:	89 45 fc             	mov    %eax,-0x4(%ebp)
     eb9:	89 55 f8             	mov    %edx,-0x8(%ebp)
     ebc:	89 4d f4             	mov    %ecx,-0xc(%ebp)
     ebf:	ff 75 f4             	pushl  -0xc(%ebp)
     ec2:	8b 4d f8             	mov    -0x8(%ebp),%ecx
     ec5:	81 c9 00 80 00 00    	or     $0x8000,%ecx
     ecb:	8b 55 fc             	mov    -0x4(%ebp),%edx
     ece:	b8 05 00 00 00       	mov    $0x5,%eax
     ed3:	e8 58 fe ff ff       	call   d30 <FPC_SYSCALL3>
     ed8:	89 45 f0             	mov    %eax,-0x10(%ebp)
     edb:	8b 45 f0             	mov    -0x10(%ebp),%eax
     ede:	c9                   	leave  
     edf:	c3                   	ret    

00000ee0 <FPC_SYSC_CLOSE>:
     ee0:	55                   	push   %ebp
     ee1:	89 e5                	mov    %esp,%ebp
     ee3:	83 ec 08             	sub    $0x8,%esp
     ee6:	89 45 fc             	mov    %eax,-0x4(%ebp)
     ee9:	8b 55 fc             	mov    -0x4(%ebp),%edx
     eec:	b8 06 00 00 00       	mov    $0x6,%eax
     ef1:	e8 ba fd ff ff       	call   cb0 <FPC_SYSCALL1>
     ef6:	89 45 f8             	mov    %eax,-0x8(%ebp)
     ef9:	8b 45 f8             	mov    -0x8(%ebp),%eax
     efc:	c9                   	leave  
     efd:	c3                   	ret    
     efe:	89 f6                	mov    %esi,%esi

00000f00 <FPC_SYSC_LSEEK>:
     f00:	55                   	push   %ebp
     f01:	89 e5                	mov    %esp,%ebp
     f03:	83 ec 10             	sub    $0x10,%esp
     f06:	89 45 fc             	mov    %eax,-0x4(%ebp)
     f09:	89 55 f8             	mov    %edx,-0x8(%ebp)
     f0c:	ff 75 08             	pushl  0x8(%ebp)
     f0f:	8d 45 f0             	lea    -0x10(%ebp),%eax
     f12:	50                   	push   %eax
     f13:	ff 75 f8             	pushl  -0x8(%ebp)
     f16:	8b 45 08             	mov    0x8(%ebp),%eax
     f19:	8b 4d 0c             	mov    0xc(%ebp),%ecx
     f1c:	31 c0                	xor    %eax,%eax
     f1e:	8b 55 fc             	mov    -0x4(%ebp),%edx
     f21:	b8 8c 00 00 00       	mov    $0x8c,%eax
     f26:	e8 a5 fe ff ff       	call   dd0 <FPC_SYSCALL5>
     f2b:	83 f8 ff             	cmp    $0xffffffff,%eax
     f2e:	74 02                	je     f32 <FPC_SYSC_LSEEK+0x32>
     f30:	eb 0e                	jmp    f40 <FPC_SYSC_LSEEK+0x40>
     f32:	c7 45 f0 ff ff ff ff 	movl   $0xffffffff,-0x10(%ebp)
     f39:	c7 45 f4 ff ff ff ff 	movl   $0xffffffff,-0xc(%ebp)
     f40:	8b 55 f4             	mov    -0xc(%ebp),%edx
     f43:	8b 45 f0             	mov    -0x10(%ebp),%eax
     f46:	c9                   	leave  
     f47:	c2 08 00             	ret    $0x8
     f4a:	8d b6 00 00 00 00    	lea    0x0(%esi),%esi

00000f50 <FPC_SYSC_READ>:
     f50:	55                   	push   %ebp
     f51:	89 e5                	mov    %esp,%ebp
     f53:	83 ec 10             	sub    $0x10,%esp
     f56:	89 45 fc             	mov    %eax,-0x4(%ebp)
     f59:	89 55 f8             	mov    %edx,-0x8(%ebp)
     f5c:	89 4d f4             	mov    %ecx,-0xc(%ebp)
     f5f:	ff 75 f4             	pushl  -0xc(%ebp)
     f62:	8b 4d f8             	mov    -0x8(%ebp),%ecx
     f65:	8b 55 fc             	mov    -0x4(%ebp),%edx
     f68:	b8 03 00 00 00       	mov    $0x3,%eax
     f6d:	e8 be fd ff ff       	call   d30 <FPC_SYSCALL3>
     f72:	89 45 f0             	mov    %eax,-0x10(%ebp)
     f75:	8b 45 f0             	mov    -0x10(%ebp),%eax
     f78:	c9                   	leave  
     f79:	c3                   	ret    
     f7a:	8d b6 00 00 00 00    	lea    0x0(%esi),%esi

00000f80 <FPC_SYSC_WRITE>:
     f80:	55                   	push   %ebp
     f81:	89 e5                	mov    %esp,%ebp
     f83:	83 ec 10             	sub    $0x10,%esp
     f86:	89 45 fc             	mov    %eax,-0x4(%ebp)
     f89:	89 55 f8             	mov    %edx,-0x8(%ebp)
     f8c:	89 4d f4             	mov    %ecx,-0xc(%ebp)
     f8f:	ff 75 f4             	pushl  -0xc(%ebp)
     f92:	8b 4d f8             	mov    -0x8(%ebp),%ecx
     f95:	8b 55 fc             	mov    -0x4(%ebp),%edx
     f98:	b8 04 00 00 00       	mov    $0x4,%eax
     f9d:	e8 8e fd ff ff       	call   d30 <FPC_SYSCALL3>
     fa2:	89 45 f0             	mov    %eax,-0x10(%ebp)
     fa5:	8b 45 f0             	mov    -0x10(%ebp),%eax
     fa8:	c9                   	leave  
     fa9:	c3                   	ret    
     faa:	8d b6 00 00 00 00    	lea    0x0(%esi),%esi

00000fb0 <FPC_SYSC_UNLINK>:
     fb0:	55                   	push   %ebp
     fb1:	89 e5                	mov    %esp,%ebp
     fb3:	83 ec 08             	sub    $0x8,%esp
     fb6:	89 45 fc             	mov    %eax,-0x4(%ebp)
     fb9:	8b 55 fc             	mov    -0x4(%ebp),%edx
     fbc:	b8 0a 00 00 00       	mov    $0xa,%eax
     fc1:	e8 ea fc ff ff       	call   cb0 <FPC_SYSCALL1>
     fc6:	89 45 f8             	mov    %eax,-0x8(%ebp)
     fc9:	8b 45 f8             	mov    -0x8(%ebp),%eax
     fcc:	c9                   	leave  
     fcd:	c3                   	ret    
     fce:	89 f6                	mov    %esi,%esi

00000fd0 <FPC_SYSC_RENAME>:
     fd0:	55                   	push   %ebp
     fd1:	89 e5                	mov    %esp,%ebp
     fd3:	83 ec 0c             	sub    $0xc,%esp
     fd6:	89 45 fc             	mov    %eax,-0x4(%ebp)
     fd9:	89 55 f8             	mov    %edx,-0x8(%ebp)
     fdc:	8b 4d f8             	mov    -0x8(%ebp),%ecx
     fdf:	8b 55 fc             	mov    -0x4(%ebp),%edx
     fe2:	b8 26 00 00 00       	mov    $0x26,%eax
     fe7:	e8 04 fd ff ff       	call   cf0 <FPC_SYSCALL2>
     fec:	89 45 f4             	mov    %eax,-0xc(%ebp)
     fef:	8b 45 f4             	mov    -0xc(%ebp),%eax
     ff2:	c9                   	leave  
     ff3:	c3                   	ret    
     ff4:	8d b4 26 00 00 00 00 	lea    0x0(%esi,%eiz,1),%esi
     ffb:	8d 74 26 00          	lea    0x0(%esi,%eiz,1),%esi
     fff:	90                   	nop

00001000 <FPC_SYSC_STAT>:
    1000:	55                   	push   %ebp
    1001:	89 e5                	mov    %esp,%ebp
    1003:	83 ec 0c             	sub    $0xc,%esp
    1006:	89 45 fc             	mov    %eax,-0x4(%ebp)
    1009:	89 55 f8             	mov    %edx,-0x8(%ebp)
    100c:	8b 4d f8             	mov    -0x8(%ebp),%ecx
    100f:	8b 55 fc             	mov    -0x4(%ebp),%edx
    1012:	b8 c3 00 00 00       	mov    $0xc3,%eax
    1017:	e8 d4 fc ff ff       	call   cf0 <FPC_SYSCALL2>
    101c:	89 45 f4             	mov    %eax,-0xc(%ebp)
    101f:	8b 45 f4             	mov    -0xc(%ebp),%eax
    1022:	c9                   	leave  
    1023:	c3                   	ret    
    1024:	8d b4 26 00 00 00 00 	lea    0x0(%esi,%eiz,1),%esi
    102b:	8d 74 26 00          	lea    0x0(%esi,%eiz,1),%esi
    102f:	90                   	nop

00001030 <FPC_SYSC_CHDIR>:
    1030:	55                   	push   %ebp
    1031:	89 e5                	mov    %esp,%ebp
    1033:	83 ec 08             	sub    $0x8,%esp
    1036:	89 45 fc             	mov    %eax,-0x4(%ebp)
    1039:	8b 55 fc             	mov    -0x4(%ebp),%edx
    103c:	b8 0c 00 00 00       	mov    $0xc,%eax
    1041:	e8 6a fc ff ff       	call   cb0 <FPC_SYSCALL1>
    1046:	89 45 f8             	mov    %eax,-0x8(%ebp)
    1049:	8b 45 f8             	mov    -0x8(%ebp),%eax
    104c:	c9                   	leave  
    104d:	c3                   	ret    
    104e:	89 f6                	mov    %esi,%esi

00001050 <FPC_SYSC_MKDIR>:
    1050:	55                   	push   %ebp
    1051:	89 e5                	mov    %esp,%ebp
    1053:	83 ec 0c             	sub    $0xc,%esp
    1056:	89 45 fc             	mov    %eax,-0x4(%ebp)
    1059:	89 55 f8             	mov    %edx,-0x8(%ebp)
    105c:	8b 4d f8             	mov    -0x8(%ebp),%ecx
    105f:	8b 55 fc             	mov    -0x4(%ebp),%edx
    1062:	b8 27 00 00 00       	mov    $0x27,%eax
    1067:	e8 84 fc ff ff       	call   cf0 <FPC_SYSCALL2>
    106c:	89 45 f4             	mov    %eax,-0xc(%ebp)
    106f:	8b 45 f4             	mov    -0xc(%ebp),%eax
    1072:	c9                   	leave  
    1073:	c3                   	ret    
    1074:	8d b4 26 00 00 00 00 	lea    0x0(%esi,%eiz,1),%esi
    107b:	8d 74 26 00          	lea    0x0(%esi,%eiz,1),%esi
    107f:	90                   	nop

00001080 <FPC_SYSC_RMDIR>:
    1080:	55                   	push   %ebp
    1081:	89 e5                	mov    %esp,%ebp
    1083:	83 ec 08             	sub    $0x8,%esp
    1086:	89 45 fc             	mov    %eax,-0x4(%ebp)
    1089:	8b 55 fc             	mov    -0x4(%ebp),%edx
    108c:	b8 28 00 00 00       	mov    $0x28,%eax
    1091:	e8 1a fc ff ff       	call   cb0 <FPC_SYSCALL1>
    1096:	89 45 f8             	mov    %eax,-0x8(%ebp)
    1099:	8b 45 f8             	mov    -0x8(%ebp),%eax
    109c:	c9                   	leave  
    109d:	c3                   	ret    
    109e:	89 f6                	mov    %esi,%esi

000010a0 <FPC_SYSC_OPENDIR>:
    10a0:	55                   	push   %ebp
    10a1:	89 e5                	mov    %esp,%ebp
    10a3:	83 ec 74             	sub    $0x74,%esp
    10a6:	89 45 fc             	mov    %eax,-0x4(%ebp)
    10a9:	c7 45 f8 00 00 00 00 	movl   $0x0,-0x8(%ebp)
    10b0:	8d 55 90             	lea    -0x70(%ebp),%edx
    10b3:	8b 45 fc             	mov    -0x4(%ebp),%eax
    10b6:	e8 45 ff ff ff       	call   1000 <FPC_SYSC_STAT>
    10bb:	83 f8 00             	cmp    $0x0,%eax
    10be:	7c 02                	jl     10c2 <FPC_SYSC_OPENDIR+0x22>
    10c0:	eb 05                	jmp    10c7 <FPC_SYSC_OPENDIR+0x27>
    10c2:	e9 c7 00 00 00       	jmp    118e <FPC_SYSC_OPENDIR+0xee>
    10c7:	8b 45 a0             	mov    -0x60(%ebp),%eax
    10ca:	25 00 f0 00 00       	and    $0xf000,%eax
    10cf:	3d 00 40 00 00       	cmp    $0x4000,%eax
    10d4:	75 02                	jne    10d8 <FPC_SYSC_OPENDIR+0x38>
    10d6:	eb 23                	jmp    10fb <FPC_SYSC_OPENDIR+0x5b>
    10d8:	8b 15 3c 51 02 00    	mov    0x2513c,%edx
    10de:	85 d2                	test   %edx,%edx
    10e0:	74 09                	je     10eb <FPC_SYSC_OPENDIR+0x4b>
    10e2:	a1 d0 5d 02 00       	mov    0x25dd0,%eax
    10e7:	ff d2                	call   *%edx
    10e9:	eb 05                	jmp    10f0 <FPC_SYSC_OPENDIR+0x50>
    10eb:	b8 d4 5d 02 00       	mov    $0x25dd4,%eax
    10f0:	c7 00 14 00 00 00    	movl   $0x14,(%eax)
    10f6:	e9 93 00 00 00       	jmp    118e <FPC_SYSC_OPENDIR+0xee>
    10fb:	8b 45 fc             	mov    -0x4(%ebp),%eax
    10fe:	b9 b6 01 00 00       	mov    $0x1b6,%ecx
    1103:	ba 00 00 00 00       	mov    $0x0,%edx
    1108:	e8 a3 fd ff ff       	call   eb0 <FPC_SYSC_OPEN>
    110d:	66 89 45 f4          	mov    %ax,-0xc(%ebp)
    1111:	66 8b 45 f4          	mov    -0xc(%ebp),%ax
    1115:	66 3d 00 00          	cmp    $0x0,%ax
    1119:	7c 02                	jl     111d <FPC_SYSC_OPENDIR+0x7d>
    111b:	eb 05                	jmp    1122 <FPC_SYSC_OPENDIR+0x82>
    111d:	e9 6c 00 00 00       	jmp    118e <FPC_SYSC_OPENDIR+0xee>
    1122:	b8 1c 00 00 00       	mov    $0x1c,%eax
    1127:	e8 64 52 01 00       	call   16390 <FPC_GETMEM>
    112c:	89 45 8c             	mov    %eax,-0x74(%ebp)
    112f:	8b 45 8c             	mov    -0x74(%ebp),%eax
    1132:	85 c0                	test   %eax,%eax
    1134:	74 02                	je     1138 <FPC_SYSC_OPENDIR+0x98>
    1136:	eb 02                	jmp    113a <FPC_SYSC_OPENDIR+0x9a>
    1138:	eb 54                	jmp    118e <FPC_SYSC_OPENDIR+0xee>
    113a:	b8 13 01 00 00       	mov    $0x113,%eax
    113f:	e8 4c 52 01 00       	call   16390 <FPC_GETMEM>
    1144:	8b 55 8c             	mov    -0x74(%ebp),%edx
    1147:	89 42 0c             	mov    %eax,0xc(%edx)
    114a:	8b 45 8c             	mov    -0x74(%ebp),%eax
    114d:	8b 40 0c             	mov    0xc(%eax),%eax
    1150:	85 c0                	test   %eax,%eax
    1152:	74 02                	je     1156 <FPC_SYSC_OPENDIR+0xb6>
    1154:	eb 02                	jmp    1158 <FPC_SYSC_OPENDIR+0xb8>
    1156:	eb 36                	jmp    118e <FPC_SYSC_OPENDIR+0xee>
    1158:	8b 55 8c             	mov    -0x74(%ebp),%edx
    115b:	66 8b 45 f4          	mov    -0xc(%ebp),%ax
    115f:	66 89 02             	mov    %ax,(%edx)
    1162:	8b 45 8c             	mov    -0x74(%ebp),%eax
    1165:	c7 40 04 00 00 00 00 	movl   $0x0,0x4(%eax)
    116c:	8b 45 8c             	mov    -0x74(%ebp),%eax
    116f:	66 c7 40 08 00 00    	movw   $0x0,0x8(%eax)
    1175:	8b 45 8c             	mov    -0x74(%ebp),%eax
    1178:	c7 40 10 00 00 00 00 	movl   $0x0,0x10(%eax)
    117f:	8b 45 8c             	mov    -0x74(%ebp),%eax
    1182:	66 c7 40 14 13 01    	movw   $0x113,0x14(%eax)
    1188:	8b 45 8c             	mov    -0x74(%ebp),%eax
    118b:	89 45 f8             	mov    %eax,-0x8(%ebp)
    118e:	8b 45 f8             	mov    -0x8(%ebp),%eax
    1191:	c9                   	leave  
    1192:	c3                   	ret    
    1193:	8d b4 26 00 00 00 00 	lea    0x0(%esi,%eiz,1),%esi
    119a:	8d b6 00 00 00 00    	lea    0x0(%esi),%esi

000011a0 <FPC_SYSC_CLOSEDIR>:
    11a0:	55                   	push   %ebp
    11a1:	89 e5                	mov    %esp,%ebp
    11a3:	83 ec 08             	sub    $0x8,%esp
    11a6:	89 45 fc             	mov    %eax,-0x4(%ebp)
    11a9:	8b 45 fc             	mov    -0x4(%ebp),%eax
    11ac:	0f bf 00             	movswl (%eax),%eax
    11af:	e8 2c fd ff ff       	call   ee0 <FPC_SYSC_CLOSE>
    11b4:	89 45 f8             	mov    %eax,-0x8(%ebp)
    11b7:	8b 45 fc             	mov    -0x4(%ebp),%eax
    11ba:	8b 40 0c             	mov    0xc(%eax),%eax
    11bd:	e8 ee 51 01 00       	call   163b0 <FPC_FREEMEM>
    11c2:	8b 45 fc             	mov    -0x4(%ebp),%eax
    11c5:	e8 e6 51 01 00       	call   163b0 <FPC_FREEMEM>
    11ca:	8b 45 f8             	mov    -0x8(%ebp),%eax
    11cd:	c9                   	leave  
    11ce:	c3                   	ret    
    11cf:	90                   	nop

000011d0 <FPC_SYSC_READDIR>:
    11d0:	55                   	push   %ebp
    11d1:	89 e5                	mov    %esp,%ebp
    11d3:	83 ec 14             	sub    $0x14,%esp
    11d6:	89 5d ec             	mov    %ebx,-0x14(%ebp)
    11d9:	89 45 fc             	mov    %eax,-0x4(%ebp)
    11dc:	8b 45 fc             	mov    -0x4(%ebp),%eax
    11df:	8b 58 10             	mov    0x10(%eax),%ebx
    11e2:	b9 00 00 00 00       	mov    $0x0,%ecx
    11e7:	8b 45 fc             	mov    -0x4(%ebp),%eax
    11ea:	0f bf 50 08          	movswl 0x8(%eax),%edx
    11ee:	89 d0                	mov    %edx,%eax
    11f0:	c1 f8 1f             	sar    $0x1f,%eax
    11f3:	39 c1                	cmp    %eax,%ecx
    11f5:	7f 08                	jg     11ff <FPC_SYSC_READDIR+0x2f>
    11f7:	7c 4f                	jl     1248 <FPC_SYSC_READDIR+0x78>
    11f9:	39 d3                	cmp    %edx,%ebx
    11fb:	73 02                	jae    11ff <FPC_SYSC_READDIR+0x2f>
    11fd:	eb 49                	jmp    1248 <FPC_SYSC_READDIR+0x78>
    11ff:	8b 45 fc             	mov    -0x4(%ebp),%eax
    1202:	0f bf 40 14          	movswl 0x14(%eax),%eax
    1206:	50                   	push   %eax
    1207:	8b 45 fc             	mov    -0x4(%ebp),%eax
    120a:	8b 48 0c             	mov    0xc(%eax),%ecx
    120d:	8b 45 fc             	mov    -0x4(%ebp),%eax
    1210:	0f bf 10             	movswl (%eax),%edx
    1213:	b8 dc 00 00 00       	mov    $0xdc,%eax
    1218:	e8 13 fb ff ff       	call   d30 <FPC_SYSCALL3>
    121d:	89 45 f4             	mov    %eax,-0xc(%ebp)
    1220:	8b 45 f4             	mov    -0xc(%ebp),%eax
    1223:	83 f8 00             	cmp    $0x0,%eax
    1226:	7e 02                	jle    122a <FPC_SYSC_READDIR+0x5a>
    1228:	eb 09                	jmp    1233 <FPC_SYSC_READDIR+0x63>
    122a:	c7 45 f8 00 00 00 00 	movl   $0x0,-0x8(%ebp)
    1231:	eb 5d                	jmp    1290 <FPC_SYSC_READDIR+0xc0>
    1233:	8b 45 fc             	mov    -0x4(%ebp),%eax
    1236:	66 8b 55 f4          	mov    -0xc(%ebp),%dx
    123a:	66 89 50 08          	mov    %dx,0x8(%eax)
    123e:	8b 45 fc             	mov    -0x4(%ebp),%eax
    1241:	c7 40 10 00 00 00 00 	movl   $0x0,0x10(%eax)
    1248:	8b 45 fc             	mov    -0x4(%ebp),%eax
    124b:	8b 55 fc             	mov    -0x4(%ebp),%edx
    124e:	8b 48 0c             	mov    0xc(%eax),%ecx
    1251:	8b 42 10             	mov    0x10(%edx),%eax
    1254:	01 c1                	add    %eax,%ecx
    1256:	89 4d f0             	mov    %ecx,-0x10(%ebp)
    1259:	8b 45 f0             	mov    -0x10(%ebp),%eax
    125c:	0f b7 40 10          	movzwl 0x10(%eax),%eax
    1260:	8b 55 fc             	mov    -0x4(%ebp),%edx
    1263:	01 42 10             	add    %eax,0x10(%edx)
    1266:	8b 45 f0             	mov    -0x10(%ebp),%eax
    1269:	0f b7 40 10          	movzwl 0x10(%eax),%eax
    126d:	8b 55 fc             	mov    -0x4(%ebp),%edx
    1270:	01 42 04             	add    %eax,0x4(%edx)
    1273:	8b 45 f0             	mov    -0x10(%ebp),%eax
    1276:	8b 10                	mov    (%eax),%edx
    1278:	8b 40 04             	mov    0x4(%eax),%eax
    127b:	83 f8 00             	cmp    $0x0,%eax
    127e:	75 0a                	jne    128a <FPC_SYSC_READDIR+0xba>
    1280:	83 fa 00             	cmp    $0x0,%edx
    1283:	75 05                	jne    128a <FPC_SYSC_READDIR+0xba>
    1285:	e9 52 ff ff ff       	jmp    11dc <FPC_SYSC_READDIR+0xc>
    128a:	8b 45 f0             	mov    -0x10(%ebp),%eax
    128d:	89 45 f8             	mov    %eax,-0x8(%ebp)
    1290:	8b 45 f8             	mov    -0x8(%ebp),%eax
    1293:	8b 5d ec             	mov    -0x14(%ebp),%ebx
    1296:	c9                   	leave  
    1297:	c3                   	ret    
    1298:	8d b4 26 00 00 00 00 	lea    0x0(%esi,%eiz,1),%esi
    129f:	90                   	nop

000012a0 <FPC_SYSC_EXIT>:
    12a0:	55                   	push   %ebp
    12a1:	89 e5                	mov    %esp,%ebp
    12a3:	83 ec 04             	sub    $0x4,%esp
    12a6:	89 45 fc             	mov    %eax,-0x4(%ebp)
    12a9:	8b 55 fc             	mov    -0x4(%ebp),%edx
    12ac:	b8 fc 00 00 00       	mov    $0xfc,%eax
    12b1:	e8 fa f9 ff ff       	call   cb0 <FPC_SYSCALL1>
    12b6:	c9                   	leave  
    12b7:	c3                   	ret    
    12b8:	8d b4 26 00 00 00 00 	lea    0x0(%esi,%eiz,1),%esi
    12bf:	90                   	nop

000012c0 <SYSTEM_LINUX_RESTORE>:
    12c0:	58                   	pop    %eax
    12c1:	b8 77 00 00 00       	mov    $0x77,%eax
    12c6:	cd 80                	int    $0x80
    12c8:	c3                   	ret    
    12c9:	8d b4 26 00 00 00 00 	lea    0x0(%esi,%eiz,1),%esi

000012d0 <SYSTEM_LINUX_RESTORE_RT>:
    12d0:	b8 ad 00 00 00       	mov    $0xad,%eax
    12d5:	cd 80                	int    $0x80
    12d7:	c3                   	ret    
    12d8:	8d b4 26 00 00 00 00 	lea    0x0(%esi,%eiz,1),%esi
    12df:	90                   	nop

000012e0 <FPC_SYSC_SIGACTION>:
    12e0:	55                   	push   %ebp
    12e1:	89 e5                	mov    %esp,%ebp
    12e3:	83 ec 10             	sub    $0x10,%esp
    12e6:	89 45 fc             	mov    %eax,-0x4(%ebp)
    12e9:	89 55 f8             	mov    %edx,-0x8(%ebp)
    12ec:	89 4d f4             	mov    %ecx,-0xc(%ebp)
    12ef:	8b 45 f8             	mov    -0x8(%ebp),%eax
    12f2:	85 c0                	test   %eax,%eax
    12f4:	75 02                	jne    12f8 <FPC_SYSC_SIGACTION+0x18>
    12f6:	eb 49                	jmp    1341 <FPC_SYSC_SIGACTION+0x61>
    12f8:	8b 45 f8             	mov    -0x8(%ebp),%eax
    12fb:	8b 40 04             	mov    0x4(%eax),%eax
    12fe:	25 00 00 00 0c       	and    $0xc000000,%eax
    1303:	85 c0                	test   %eax,%eax
    1305:	74 02                	je     1309 <FPC_SYSC_SIGACTION+0x29>
    1307:	eb 38                	jmp    1341 <FPC_SYSC_SIGACTION+0x61>
    1309:	8b 45 f8             	mov    -0x8(%ebp),%eax
    130c:	8b 40 04             	mov    0x4(%eax),%eax
    130f:	0d 00 00 00 04       	or     $0x4000000,%eax
    1314:	8b 55 f8             	mov    -0x8(%ebp),%edx
    1317:	89 42 04             	mov    %eax,0x4(%edx)
    131a:	8b 45 f8             	mov    -0x8(%ebp),%eax
    131d:	8b 40 04             	mov    0x4(%eax),%eax
    1320:	83 e0 04             	and    $0x4,%eax
    1323:	85 c0                	test   %eax,%eax
    1325:	75 02                	jne    1329 <FPC_SYSC_SIGACTION+0x49>
    1327:	eb 0d                	jmp    1336 <FPC_SYSC_SIGACTION+0x56>
    1329:	8b 45 f8             	mov    -0x8(%ebp),%eax
    132c:	ba d0 12 00 00       	mov    $0x12d0,%edx
    1331:	89 50 08             	mov    %edx,0x8(%eax)
    1334:	eb 0b                	jmp    1341 <FPC_SYSC_SIGACTION+0x61>
    1336:	8b 45 f8             	mov    -0x8(%ebp),%eax
    1339:	ba c0 12 00 00       	mov    $0x12c0,%edx
    133e:	89 50 08             	mov    %edx,0x8(%eax)
    1341:	ff 75 f4             	pushl  -0xc(%ebp)
    1344:	6a 08                	push   $0x8
    1346:	8b 4d f8             	mov    -0x8(%ebp),%ecx
    1349:	8b 55 fc             	mov    -0x4(%ebp),%edx
    134c:	b8 ae 00 00 00       	mov    $0xae,%eax
    1351:	e8 2a fa ff ff       	call   d80 <FPC_SYSCALL4>
    1356:	89 45 f0             	mov    %eax,-0x10(%ebp)
    1359:	8b 45 f0             	mov    -0x10(%ebp),%eax
    135c:	c9                   	leave  
    135d:	c3                   	ret    
    135e:	89 f6                	mov    %esi,%esi

00001360 <FPC_SYSC_FTRUNCATE>:
    1360:	55                   	push   %ebp
    1361:	89 e5                	mov    %esp,%ebp
    1363:	83 ec 08             	sub    $0x8,%esp
    1366:	89 45 fc             	mov    %eax,-0x4(%ebp)
    1369:	8b 55 08             	mov    0x8(%ebp),%edx
    136c:	8b 45 0c             	mov    0xc(%ebp),%eax
    136f:	31 d2                	xor    %edx,%edx
    1371:	50                   	push   %eax
    1372:	8b 4d 08             	mov    0x8(%ebp),%ecx
    1375:	8b 55 fc             	mov    -0x4(%ebp),%edx
    1378:	b8 c2 00 00 00       	mov    $0xc2,%eax
    137d:	e8 ae f9 ff ff       	call   d30 <FPC_SYSCALL3>
    1382:	89 45 f8             	mov    %eax,-0x8(%ebp)
    1385:	8b 45 f8             	mov    -0x8(%ebp),%eax
    1388:	c9                   	leave  
    1389:	c2 08 00             	ret    $0x8
    138c:	8d 74 26 00          	lea    0x0(%esi,%eiz,1),%esi

00001390 <FPC_SYSC_FSTAT>:
    1390:	55                   	push   %ebp
    1391:	89 e5                	mov    %esp,%ebp
    1393:	83 ec 0c             	sub    $0xc,%esp
    1396:	89 45 fc             	mov    %eax,-0x4(%ebp)
    1399:	89 55 f8             	mov    %edx,-0x8(%ebp)
    139c:	8b 4d f8             	mov    -0x8(%ebp),%ecx
    139f:	8b 55 fc             	mov    -0x4(%ebp),%edx
    13a2:	b8 c5 00 00 00       	mov    $0xc5,%eax
    13a7:	e8 44 f9 ff ff       	call   cf0 <FPC_SYSCALL2>
    13ac:	89 45 f4             	mov    %eax,-0xc(%ebp)
    13af:	8b 45 f4             	mov    -0xc(%ebp),%eax
    13b2:	c9                   	leave  
    13b3:	c3                   	ret    
    13b4:	8d b4 26 00 00 00 00 	lea    0x0(%esi,%eiz,1),%esi
    13bb:	8d 74 26 00          	lea    0x0(%esi,%eiz,1),%esi
    13bf:	90                   	nop

000013c0 <FPC_SYSC_FORK>:
    13c0:	55                   	push   %ebp
    13c1:	89 e5                	mov    %esp,%ebp
    13c3:	83 ec 04             	sub    $0x4,%esp
    13c6:	b8 02 00 00 00       	mov    $0x2,%eax
    13cb:	e8 a0 f8 ff ff       	call   c70 <FPC_SYSCALL0>
    13d0:	89 45 fc             	mov    %eax,-0x4(%ebp)
    13d3:	8b 45 fc             	mov    -0x4(%ebp),%eax
    13d6:	c9                   	leave  
    13d7:	c3                   	ret    
    13d8:	8d b4 26 00 00 00 00 	lea    0x0(%esi,%eiz,1),%esi
    13df:	90                   	nop

000013e0 <FPC_SYSC_WAITPID>:
    13e0:	55                   	push   %ebp
    13e1:	89 e5                	mov    %esp,%ebp
    13e3:	83 ec 10             	sub    $0x10,%esp
    13e6:	89 45 fc             	mov    %eax,-0x4(%ebp)
    13e9:	89 55 f8             	mov    %edx,-0x8(%ebp)
    13ec:	89 4d f4             	mov    %ecx,-0xc(%ebp)
    13ef:	ff 75 f4             	pushl  -0xc(%ebp)
    13f2:	8b 4d f8             	mov    -0x8(%ebp),%ecx
    13f5:	8b 55 fc             	mov    -0x4(%ebp),%edx
    13f8:	b8 07 00 00 00       	mov    $0x7,%eax
    13fd:	e8 2e f9 ff ff       	call   d30 <FPC_SYSCALL3>
    1402:	89 45 f0             	mov    %eax,-0x10(%ebp)
    1405:	8b 45 f0             	mov    -0x10(%ebp),%eax
    1408:	c9                   	leave  
    1409:	c3                   	ret    
    140a:	8d b6 00 00 00 00    	lea    0x0(%esi),%esi

00001410 <FPC_SYSC_ACCESS>:
    1410:	55                   	push   %ebp
    1411:	89 e5                	mov    %esp,%ebp
    1413:	83 ec 0c             	sub    $0xc,%esp
    1416:	89 45 fc             	mov    %eax,-0x4(%ebp)
    1419:	89 55 f8             	mov    %edx,-0x8(%ebp)
    141c:	8b 4d f8             	mov    -0x8(%ebp),%ecx
    141f:	8b 55 fc             	mov    -0x4(%ebp),%edx
    1422:	b8 21 00 00 00       	mov    $0x21,%eax
    1427:	e8 c4 f8 ff ff       	call   cf0 <FPC_SYSCALL2>
    142c:	89 45 f4             	mov    %eax,-0xc(%ebp)
    142f:	8b 45 f4             	mov    -0xc(%ebp),%eax
    1432:	c9                   	leave  
    1433:	c3                   	ret    
    1434:	8d b4 26 00 00 00 00 	lea    0x0(%esi,%eiz,1),%esi
    143b:	8d 74 26 00          	lea    0x0(%esi,%eiz,1),%esi
    143f:	90                   	nop

00001440 <FPC_SYSC_DUP>:
    1440:	55                   	push   %ebp
    1441:	89 e5                	mov    %esp,%ebp
    1443:	83 ec 08             	sub    $0x8,%esp
    1446:	89 45 fc             	mov    %eax,-0x4(%ebp)
    1449:	8b 55 fc             	mov    -0x4(%ebp),%edx
    144c:	b8 29 00 00 00       	mov    $0x29,%eax
    1451:	e8 5a f8 ff ff       	call   cb0 <FPC_SYSCALL1>
    1456:	89 45 f8             	mov    %eax,-0x8(%ebp)
    1459:	8b 45 f8             	mov    -0x8(%ebp),%eax
    145c:	c9                   	leave  
    145d:	c3                   	ret    
    145e:	89 f6                	mov    %esi,%esi

00001460 <FPC_SYSC_DUP2>:
    1460:	55                   	push   %ebp
    1461:	89 e5                	mov    %esp,%ebp
    1463:	83 ec 0c             	sub    $0xc,%esp
    1466:	89 45 fc             	mov    %eax,-0x4(%ebp)
    1469:	89 55 f8             	mov    %edx,-0x8(%ebp)
    146c:	8b 4d f8             	mov    -0x8(%ebp),%ecx
    146f:	8b 55 fc             	mov    -0x4(%ebp),%edx
    1472:	b8 3f 00 00 00       	mov    $0x3f,%eax
    1477:	e8 74 f8 ff ff       	call   cf0 <FPC_SYSCALL2>
    147c:	89 45 f4             	mov    %eax,-0xc(%ebp)
    147f:	8b 45 f4             	mov    -0xc(%ebp),%eax
    1482:	c9                   	leave  
    1483:	c3                   	ret    
    1484:	8d b4 26 00 00 00 00 	lea    0x0(%esi,%eiz,1),%esi
    148b:	8d 74 26 00          	lea    0x0(%esi,%eiz,1),%esi
    148f:	90                   	nop

00001490 <FPC_SYSC_MMAP>:
    1490:	55                   	push   %ebp
    1491:	89 e5                	mov    %esp,%ebp
    1493:	83 ec 28             	sub    $0x28,%esp
    1496:	89 45 fc             	mov    %eax,-0x4(%ebp)
    1499:	89 55 f8             	mov    %edx,-0x8(%ebp)
    149c:	89 4d f4             	mov    %ecx,-0xc(%ebp)
    149f:	8b 45 fc             	mov    -0x4(%ebp),%eax
    14a2:	89 45 d8             	mov    %eax,-0x28(%ebp)
    14a5:	8b 45 f8             	mov    -0x8(%ebp),%eax
    14a8:	89 45 dc             	mov    %eax,-0x24(%ebp)
    14ab:	8b 45 f4             	mov    -0xc(%ebp),%eax
    14ae:	89 45 e0             	mov    %eax,-0x20(%ebp)
    14b1:	8b 45 14             	mov    0x14(%ebp),%eax
    14b4:	89 45 e4             	mov    %eax,-0x1c(%ebp)
    14b7:	8b 45 10             	mov    0x10(%ebp),%eax
    14ba:	89 45 e8             	mov    %eax,-0x18(%ebp)
    14bd:	8b 45 08             	mov    0x8(%ebp),%eax
    14c0:	89 45 ec             	mov    %eax,-0x14(%ebp)
    14c3:	8d 55 d8             	lea    -0x28(%ebp),%edx
    14c6:	b8 5a 00 00 00       	mov    $0x5a,%eax
    14cb:	e8 e0 f7 ff ff       	call   cb0 <FPC_SYSCALL1>
    14d0:	89 45 f0             	mov    %eax,-0x10(%ebp)
    14d3:	8b 45 f0             	mov    -0x10(%ebp),%eax
    14d6:	c9                   	leave  
    14d7:	c2 10 00             	ret    $0x10
    14da:	8d b6 00 00 00 00    	lea    0x0(%esi),%esi

000014e0 <FPC_SYSC_MUNMAP>:
    14e0:	55                   	push   %ebp
    14e1:	89 e5                	mov    %esp,%ebp
    14e3:	83 ec 0c             	sub    $0xc,%esp
    14e6:	89 45 fc             	mov    %eax,-0x4(%ebp)
    14e9:	89 55 f8             	mov    %edx,-0x8(%ebp)
    14ec:	8b 4d f8             	mov    -0x8(%ebp),%ecx
    14ef:	8b 55 fc             	mov    -0x4(%ebp),%edx
    14f2:	b8 5b 00 00 00       	mov    $0x5b,%eax
    14f7:	e8 f4 f7 ff ff       	call   cf0 <FPC_SYSCALL2>
    14fc:	89 45 f4             	mov    %eax,-0xc(%ebp)
    14ff:	8b 45 f4             	mov    -0xc(%ebp),%eax
    1502:	c9                   	leave  
    1503:	c3                   	ret    
    1504:	8d b4 26 00 00 00 00 	lea    0x0(%esi,%eiz,1),%esi
    150b:	8d 74 26 00          	lea    0x0(%esi,%eiz,1),%esi
    150f:	90                   	nop

00001510 <FPC_SYSC_IOCTL>:
    1510:	55                   	push   %ebp
    1511:	89 e5                	mov    %esp,%ebp
    1513:	83 ec 10             	sub    $0x10,%esp
    1516:	89 45 fc             	mov    %eax,-0x4(%ebp)
    1519:	89 55 f8             	mov    %edx,-0x8(%ebp)
    151c:	89 4d f4             	mov    %ecx,-0xc(%ebp)
    151f:	ff 75 f4             	pushl  -0xc(%ebp)
    1522:	8b 4d f8             	mov    -0x8(%ebp),%ecx
    1525:	8b 55 fc             	mov    -0x4(%ebp),%edx
    1528:	b8 36 00 00 00       	mov    $0x36,%eax
    152d:	e8 fe f7 ff ff       	call   d30 <FPC_SYSCALL3>
    1532:	89 45 f0             	mov    %eax,-0x10(%ebp)
    1535:	8b 45 f0             	mov    -0x10(%ebp),%eax
    1538:	c9                   	leave  
    1539:	c3                   	ret    
    153a:	8d b6 00 00 00 00    	lea    0x0(%esi),%esi

00001540 <FPC_SYSC_GETPID>:
    1540:	55                   	push   %ebp
    1541:	89 e5                	mov    %esp,%ebp
    1543:	83 ec 04             	sub    $0x4,%esp
    1546:	b8 14 00 00 00       	mov    $0x14,%eax
    154b:	e8 20 f7 ff ff       	call   c70 <FPC_SYSCALL0>
    1550:	89 45 fc             	mov    %eax,-0x4(%ebp)
    1553:	8b 45 fc             	mov    -0x4(%ebp),%eax
    1556:	c9                   	leave  
    1557:	c3                   	ret    
    1558:	8d b4 26 00 00 00 00 	lea    0x0(%esi,%eiz,1),%esi
    155f:	90                   	nop

00001560 <FPC_SYSC_READLINK>:
    1560:	55                   	push   %ebp
    1561:	89 e5                	mov    %esp,%ebp
    1563:	83 ec 10             	sub    $0x10,%esp
    1566:	89 45 fc             	mov    %eax,-0x4(%ebp)
    1569:	89 55 f8             	mov    %edx,-0x8(%ebp)
    156c:	89 4d f4             	mov    %ecx,-0xc(%ebp)
    156f:	ff 75 f4             	pushl  -0xc(%ebp)
    1572:	8b 4d f8             	mov    -0x8(%ebp),%ecx
    1575:	8b 55 fc             	mov    -0x4(%ebp),%edx
    1578:	b8 55 00 00 00       	mov    $0x55,%eax
    157d:	e8 ae f7 ff ff       	call   d30 <FPC_SYSCALL3>
    1582:	89 45 f0             	mov    %eax,-0x10(%ebp)
    1585:	8b 45 f0             	mov    -0x10(%ebp),%eax
    1588:	c9                   	leave  
    1589:	c3                   	ret    
    158a:	8d b6 00 00 00 00    	lea    0x0(%esi),%esi

00001590 <FPC_SYSC_SIGPROCMASK>:
    1590:	55                   	push   %ebp
    1591:	89 e5                	mov    %esp,%ebp
    1593:	83 ec 10             	sub    $0x10,%esp
    1596:	89 45 fc             	mov    %eax,-0x4(%ebp)
    1599:	89 55 f8             	mov    %edx,-0x8(%ebp)
    159c:	89 4d f4             	mov    %ecx,-0xc(%ebp)
    159f:	ff 75 f4             	pushl  -0xc(%ebp)
    15a2:	6a 08                	push   $0x8
    15a4:	8b 4d f8             	mov    -0x8(%ebp),%ecx
    15a7:	8b 55 fc             	mov    -0x4(%ebp),%edx
    15aa:	b8 af 00 00 00       	mov    $0xaf,%eax
    15af:	e8 cc f7 ff ff       	call   d80 <FPC_SYSCALL4>
    15b4:	89 45 f0             	mov    %eax,-0x10(%ebp)
    15b7:	8b 45 f0             	mov    -0x10(%ebp),%eax
    15ba:	c9                   	leave  
    15bb:	c3                   	ret    
    15bc:	8d 74 26 00          	lea    0x0(%esi,%eiz,1),%esi

000015c0 <FPC_SYSC_NANOSLEEP>:
    15c0:	55                   	push   %ebp
    15c1:	89 e5                	mov    %esp,%ebp
    15c3:	83 ec 0c             	sub    $0xc,%esp
    15c6:	89 45 fc             	mov    %eax,-0x4(%ebp)
    15c9:	89 55 f8             	mov    %edx,-0x8(%ebp)
    15cc:	8b 4d f8             	mov    -0x8(%ebp),%ecx
    15cf:	8b 55 fc             	mov    -0x4(%ebp),%edx
    15d2:	b8 a2 00 00 00       	mov    $0xa2,%eax
    15d7:	e8 14 f7 ff ff       	call   cf0 <FPC_SYSCALL2>
    15dc:	89 45 f4             	mov    %eax,-0xc(%ebp)
    15df:	8b 45 f4             	mov    -0xc(%ebp),%eax
    15e2:	c9                   	leave  
    15e3:	c3                   	ret    
    15e4:	8d b4 26 00 00 00 00 	lea    0x0(%esi,%eiz,1),%esi
    15eb:	8d 74 26 00          	lea    0x0(%esi,%eiz,1),%esi
    15ef:	90                   	nop

000015f0 <FPC_SYSC_GETCWD>:
    15f0:	55                   	push   %ebp
    15f1:	89 e5                	mov    %esp,%ebp
    15f3:	83 ec 0c             	sub    $0xc,%esp
    15f6:	89 45 fc             	mov    %eax,-0x4(%ebp)
    15f9:	89 55 f8             	mov    %edx,-0x8(%ebp)
    15fc:	8b 4d f8             	mov    -0x8(%ebp),%ecx
    15ff:	8b 55 fc             	mov    -0x4(%ebp),%edx
    1602:	b8 b7 00 00 00       	mov    $0xb7,%eax
    1607:	e8 e4 f6 ff ff       	call   cf0 <FPC_SYSCALL2>
    160c:	89 45 f4             	mov    %eax,-0xc(%ebp)
    160f:	8b 45 f4             	mov    -0xc(%ebp),%eax
    1612:	c9                   	leave  
    1613:	c3                   	ret    
    1614:	8d b4 26 00 00 00 00 	lea    0x0(%esi,%eiz,1),%esi
    161b:	8d 74 26 00          	lea    0x0(%esi,%eiz,1),%esi
    161f:	90                   	nop

00001620 <FPC_SYSC_GETTIMEOFDAY>:
    1620:	55                   	push   %ebp
    1621:	89 e5                	mov    %esp,%ebp
    1623:	83 ec 0c             	sub    $0xc,%esp
    1626:	89 45 fc             	mov    %eax,-0x4(%ebp)
    1629:	89 55 f8             	mov    %edx,-0x8(%ebp)
    162c:	8b 4d f8             	mov    -0x8(%ebp),%ecx
    162f:	8b 55 fc             	mov    -0x4(%ebp),%edx
    1632:	b8 4e 00 00 00       	mov    $0x4e,%eax
    1637:	e8 b4 f6 ff ff       	call   cf0 <FPC_SYSCALL2>
    163c:	89 45 f4             	mov    %eax,-0xc(%ebp)
    163f:	8b 45 f4             	mov    -0xc(%ebp),%eax
    1642:	c9                   	leave  
    1643:	c3                   	ret    
    1644:	8d b4 26 00 00 00 00 	lea    0x0(%esi,%eiz,1),%esi
    164b:	8d 74 26 00          	lea    0x0(%esi,%eiz,1),%esi
    164f:	90                   	nop

00001650 <SYSTEM_FPGETRLIMIT$LONGINT$PRLIMIT$$LONGINT>:
    1650:	55                   	push   %ebp
    1651:	89 e5                	mov    %esp,%ebp
    1653:	83 ec 0c             	sub    $0xc,%esp
    1656:	89 45 fc             	mov    %eax,-0x4(%ebp)
    1659:	89 55 f8             	mov    %edx,-0x8(%ebp)
    165c:	8b 4d f8             	mov    -0x8(%ebp),%ecx
    165f:	8b 55 fc             	mov    -0x4(%ebp),%edx
    1662:	b8 4c 00 00 00       	mov    $0x4c,%eax
    1667:	e8 84 f6 ff ff       	call   cf0 <FPC_SYSCALL2>
    166c:	89 45 f4             	mov    %eax,-0xc(%ebp)
    166f:	8b 45 f4             	mov    -0xc(%ebp),%eax
    1672:	c9                   	leave  
    1673:	c3                   	ret    
    1674:	8d b4 26 00 00 00 00 	lea    0x0(%esi,%eiz,1),%esi
    167b:	8d 74 26 00          	lea    0x0(%esi,%eiz,1),%esi
    167f:	90                   	nop

00001680 <SYSTEM_FPUGETRLIMIT$LONGINT$PRLIMIT$$LONGINT>:
    1680:	55                   	push   %ebp
    1681:	89 e5                	mov    %esp,%ebp
    1683:	83 ec 0c             	sub    $0xc,%esp
    1686:	89 45 fc             	mov    %eax,-0x4(%ebp)
    1689:	89 55 f8             	mov    %edx,-0x8(%ebp)
    168c:	8b 4d f8             	mov    -0x8(%ebp),%ecx
    168f:	8b 55 fc             	mov    -0x4(%ebp),%edx
    1692:	b8 bf 00 00 00       	mov    $0xbf,%eax
    1697:	e8 54 f6 ff ff       	call   cf0 <FPC_SYSCALL2>
    169c:	89 45 f4             	mov    %eax,-0xc(%ebp)
    169f:	8b 45 f4             	mov    -0xc(%ebp),%eax
    16a2:	c9                   	leave  
    16a3:	c3                   	ret    
    16a4:	8d b4 26 00 00 00 00 	lea    0x0(%esi,%eiz,1),%esi
    16ab:	8d 74 26 00          	lea    0x0(%esi,%eiz,1),%esi
    16af:	90                   	nop

000016b0 <FPC_SYSC_SETRLIMIT>:
    16b0:	55                   	push   %ebp
    16b1:	89 e5                	mov    %esp,%ebp
    16b3:	83 ec 0c             	sub    $0xc,%esp
    16b6:	89 45 fc             	mov    %eax,-0x4(%ebp)
    16b9:	89 55 f8             	mov    %edx,-0x8(%ebp)
    16bc:	8b 4d f8             	mov    -0x8(%ebp),%ecx
    16bf:	8b 55 fc             	mov    -0x4(%ebp),%edx
    16c2:	b8 4b 00 00 00       	mov    $0x4b,%eax
    16c7:	e8 24 f6 ff ff       	call   cf0 <FPC_SYSCALL2>
    16cc:	89 45 f4             	mov    %eax,-0xc(%ebp)
    16cf:	8b 45 f4             	mov    -0xc(%ebp),%eax
    16d2:	c9                   	leave  
    16d3:	c3                   	ret    
    16d4:	8d b4 26 00 00 00 00 	lea    0x0(%esi,%eiz,1),%esi
    16db:	8d 74 26 00          	lea    0x0(%esi,%eiz,1),%esi
    16df:	90                   	nop

000016e0 <SYSTEM_FPS_ISDIR$LONGWORD$$BOOLEAN>:
    16e0:	55                   	push   %ebp
    16e1:	89 e5                	mov    %esp,%ebp
    16e3:	83 ec 08             	sub    $0x8,%esp
    16e6:	89 45 fc             	mov    %eax,-0x4(%ebp)
    16e9:	8b 45 fc             	mov    -0x4(%ebp),%eax
    16ec:	25 00 f0 00 00       	and    $0xf000,%eax
    16f1:	3d 00 40 00 00       	cmp    $0x4000,%eax
    16f6:	0f 94 45 f8          	sete   -0x8(%ebp)
    16fa:	8a 45 f8             	mov    -0x8(%ebp),%al
    16fd:	c9                   	leave  
    16fe:	c3                   	ret    
    16ff:	90                   	nop

00001700 <SYSTEM_FPS_ISCHR$LONGWORD$$BOOLEAN>:
    1700:	55                   	push   %ebp
    1701:	89 e5                	mov    %esp,%ebp
    1703:	83 ec 08             	sub    $0x8,%esp
    1706:	89 45 fc             	mov    %eax,-0x4(%ebp)
    1709:	8b 45 fc             	mov    -0x4(%ebp),%eax
    170c:	25 00 f0 00 00       	and    $0xf000,%eax
    1711:	3d 00 20 00 00       	cmp    $0x2000,%eax
    1716:	0f 94 45 f8          	sete   -0x8(%ebp)
    171a:	8a 45 f8             	mov    -0x8(%ebp),%al
    171d:	c9                   	leave  
    171e:	c3                   	ret    
    171f:	90                   	nop

00001720 <SYSTEM_FPS_ISBLK$LONGWORD$$BOOLEAN>:
    1720:	55                   	push   %ebp
    1721:	89 e5                	mov    %esp,%ebp
    1723:	83 ec 08             	sub    $0x8,%esp
    1726:	89 45 fc             	mov    %eax,-0x4(%ebp)
    1729:	8b 45 fc             	mov    -0x4(%ebp),%eax
    172c:	25 00 f0 00 00       	and    $0xf000,%eax
    1731:	3d 00 60 00 00       	cmp    $0x6000,%eax
    1736:	0f 94 45 f8          	sete   -0x8(%ebp)
    173a:	8a 45 f8             	mov    -0x8(%ebp),%al
    173d:	c9                   	leave  
    173e:	c3                   	ret    
    173f:	90                   	nop

00001740 <SYSTEM_FPS_ISREG$LONGWORD$$BOOLEAN>:
    1740:	55                   	push   %ebp
    1741:	89 e5                	mov    %esp,%ebp
    1743:	83 ec 08             	sub    $0x8,%esp
    1746:	89 45 fc             	mov    %eax,-0x4(%ebp)
    1749:	8b 45 fc             	mov    -0x4(%ebp),%eax
    174c:	25 00 f0 00 00       	and    $0xf000,%eax
    1751:	3d 00 80 00 00       	cmp    $0x8000,%eax
    1756:	0f 94 45 f8          	sete   -0x8(%ebp)
    175a:	8a 45 f8             	mov    -0x8(%ebp),%al
    175d:	c9                   	leave  
    175e:	c3                   	ret    
    175f:	90                   	nop

00001760 <SYSTEM_FPS_ISFIFO$LONGWORD$$BOOLEAN>:
    1760:	55                   	push   %ebp
    1761:	89 e5                	mov    %esp,%ebp
    1763:	83 ec 08             	sub    $0x8,%esp
    1766:	89 45 fc             	mov    %eax,-0x4(%ebp)
    1769:	8b 45 fc             	mov    -0x4(%ebp),%eax
    176c:	25 00 f0 00 00       	and    $0xf000,%eax
    1771:	3d 00 10 00 00       	cmp    $0x1000,%eax
    1776:	0f 94 45 f8          	sete   -0x8(%ebp)
    177a:	8a 45 f8             	mov    -0x8(%ebp),%al
    177d:	c9                   	leave  
    177e:	c3                   	ret    
    177f:	90                   	nop

00001780 <SYSTEM_FPS_ISLNK$LONGWORD$$BOOLEAN>:
    1780:	55                   	push   %ebp
    1781:	89 e5                	mov    %esp,%ebp
    1783:	83 ec 08             	sub    $0x8,%esp
    1786:	89 45 fc             	mov    %eax,-0x4(%ebp)
    1789:	8b 45 fc             	mov    -0x4(%ebp),%eax
    178c:	25 00 f0 00 00       	and    $0xf000,%eax
    1791:	3d 00 a0 00 00       	cmp    $0xa000,%eax
    1796:	0f 94 45 f8          	sete   -0x8(%ebp)
    179a:	8a 45 f8             	mov    -0x8(%ebp),%al
    179d:	c9                   	leave  
    179e:	c3                   	ret    
    179f:	90                   	nop

000017a0 <SYSTEM_FPS_ISSOCK$LONGWORD$$BOOLEAN>:
    17a0:	55                   	push   %ebp
    17a1:	89 e5                	mov    %esp,%ebp
    17a3:	83 ec 08             	sub    $0x8,%esp
    17a6:	89 45 fc             	mov    %eax,-0x4(%ebp)
    17a9:	8b 45 fc             	mov    -0x4(%ebp),%eax
    17ac:	25 00 f0 00 00       	and    $0xf000,%eax
    17b1:	3d 00 c0 00 00       	cmp    $0xc000,%eax
    17b6:	0f 94 45 f8          	sete   -0x8(%ebp)
    17ba:	8a 45 f8             	mov    -0x8(%ebp),%al
    17bd:	c9                   	leave  
    17be:	c3                   	ret    
    17bf:	90                   	nop

000017c0 <SYSTEM_WIFEXITED$LONGINT$$BOOLEAN>:
    17c0:	55                   	push   %ebp
    17c1:	89 e5                	mov    %esp,%ebp
    17c3:	83 ec 08             	sub    $0x8,%esp
    17c6:	89 45 fc             	mov    %eax,-0x4(%ebp)
    17c9:	8b 45 fc             	mov    -0x4(%ebp),%eax
    17cc:	83 e0 7f             	and    $0x7f,%eax
    17cf:	85 c0                	test   %eax,%eax
    17d1:	0f 94 45 f8          	sete   -0x8(%ebp)
    17d5:	8a 45 f8             	mov    -0x8(%ebp),%al
    17d8:	c9                   	leave  
    17d9:	c3                   	ret    
    17da:	8d b6 00 00 00 00    	lea    0x0(%esi),%esi

000017e0 <SYSTEM_WEXITSTATUS$LONGINT$$LONGINT>:
    17e0:	55                   	push   %ebp
    17e1:	89 e5                	mov    %esp,%ebp
    17e3:	83 ec 08             	sub    $0x8,%esp
    17e6:	89 45 fc             	mov    %eax,-0x4(%ebp)
    17e9:	8b 45 fc             	mov    -0x4(%ebp),%eax
    17ec:	25 00 ff 00 00       	and    $0xff00,%eax
    17f1:	c1 e8 08             	shr    $0x8,%eax
    17f4:	89 45 f8             	mov    %eax,-0x8(%ebp)
    17f7:	8b 45 f8             	mov    -0x8(%ebp),%eax
    17fa:	c9                   	leave  
    17fb:	c3                   	ret    
    17fc:	8d 74 26 00          	lea    0x0(%esi,%eiz,1),%esi

00001800 <SYSTEM_WSTOPSIG$LONGINT$$LONGINT>:
    1800:	55                   	push   %ebp
    1801:	89 e5                	mov    %esp,%ebp
    1803:	83 ec 08             	sub    $0x8,%esp
    1806:	89 45 fc             	mov    %eax,-0x4(%ebp)
    1809:	8b 45 fc             	mov    -0x4(%ebp),%eax
    180c:	25 00 ff 00 00       	and    $0xff00,%eax
    1811:	c1 e8 08             	shr    $0x8,%eax
    1814:	89 45 f8             	mov    %eax,-0x8(%ebp)
    1817:	8b 45 f8             	mov    -0x8(%ebp),%eax
    181a:	c9                   	leave  
    181b:	c3                   	ret    
    181c:	8d 74 26 00          	lea    0x0(%esi,%eiz,1),%esi

00001820 <SYSTEM_WIFSIGNALED$LONGINT$$BOOLEAN>:
    1820:	55                   	push   %ebp
    1821:	89 e5                	mov    %esp,%ebp
    1823:	83 ec 08             	sub    $0x8,%esp
    1826:	89 45 fc             	mov    %eax,-0x4(%ebp)
    1829:	8b 45 fc             	mov    -0x4(%ebp),%eax
    182c:	25 ff 00 00 00       	and    $0xff,%eax
    1831:	83 f8 7f             	cmp    $0x7f,%eax
    1834:	75 02                	jne    1838 <SYSTEM_WIFSIGNALED$LONGINT$$BOOLEAN+0x18>
    1836:	eb 12                	jmp    184a <SYSTEM_WIFSIGNALED$LONGINT$$BOOLEAN+0x2a>
    1838:	8b 45 fc             	mov    -0x4(%ebp),%eax
    183b:	83 e0 7f             	and    $0x7f,%eax
    183e:	85 c0                	test   %eax,%eax
    1840:	75 02                	jne    1844 <SYSTEM_WIFSIGNALED$LONGINT$$BOOLEAN+0x24>
    1842:	eb 06                	jmp    184a <SYSTEM_WIFSIGNALED$LONGINT$$BOOLEAN+0x2a>
    1844:	c6 45 f8 01          	movb   $0x1,-0x8(%ebp)
    1848:	eb 04                	jmp    184e <SYSTEM_WIFSIGNALED$LONGINT$$BOOLEAN+0x2e>
    184a:	c6 45 f8 00          	movb   $0x0,-0x8(%ebp)
    184e:	8a 45 f8             	mov    -0x8(%ebp),%al
    1851:	c9                   	leave  
    1852:	c3                   	ret    
    1853:	8d b4 26 00 00 00 00 	lea    0x0(%esi,%eiz,1),%esi
    185a:	8d b6 00 00 00 00    	lea    0x0(%esi),%esi

00001860 <SYSTEM_WTERMSIG$LONGINT$$LONGINT>:
    1860:	55                   	push   %ebp
    1861:	89 e5                	mov    %esp,%ebp
    1863:	83 ec 08             	sub    $0x8,%esp
    1866:	89 45 fc             	mov    %eax,-0x4(%ebp)
    1869:	8b 45 fc             	mov    -0x4(%ebp),%eax
    186c:	83 e0 7f             	and    $0x7f,%eax
    186f:	89 45 f8             	mov    %eax,-0x8(%ebp)
    1872:	8b 45 f8             	mov    -0x8(%ebp),%eax
    1875:	c9                   	leave  
    1876:	c3                   	ret    
    1877:	8d b4 26 00 00 00 00 	lea    0x0(%esi,%eiz,1),%esi
    187e:	89 f6                	mov    %esi,%esi

00001880 <SYSTEM_POSIXTORUNERROR$LONGINT$$WORD>:
    1880:	55                   	push   %ebp
    1881:	89 e5                	mov    %esp,%ebp
    1883:	83 ec 0c             	sub    $0xc,%esp
    1886:	89 45 fc             	mov    %eax,-0x4(%ebp)
    1889:	8b 45 fc             	mov    -0x4(%ebp),%eax
    188c:	83 f8 02             	cmp    $0x2,%eax
    188f:	0f 8c c2 00 00 00    	jl     1957 <SYSTEM_POSIXTORUNERROR$LONGINT$$WORD+0xd7>
    1895:	83 e8 02             	sub    $0x2,%eax
    1898:	0f 84 79 00 00 00    	je     1917 <SYSTEM_POSIXTORUNERROR$LONGINT$$WORD+0x97>
    189e:	83 e8 02             	sub    $0x2,%eax
    18a1:	0f 8c b0 00 00 00    	jl     1957 <SYSTEM_POSIXTORUNERROR$LONGINT$$WORD+0xd7>
    18a7:	83 e8 01             	sub    $0x1,%eax
    18aa:	0f 8e 87 00 00 00    	jle    1937 <SYSTEM_POSIXTORUNERROR$LONGINT$$WORD+0xb7>
    18b0:	83 e8 04             	sub    $0x4,%eax
    18b3:	0f 84 66 00 00 00    	je     191f <SYSTEM_POSIXTORUNERROR$LONGINT$$WORD+0x9f>
    18b9:	83 e8 02             	sub    $0x2,%eax
    18bc:	0f 84 75 00 00 00    	je     1937 <SYSTEM_POSIXTORUNERROR$LONGINT$$WORD+0xb7>
    18c2:	48                   	dec    %eax
    18c3:	0f 84 5e 00 00 00    	je     1927 <SYSTEM_POSIXTORUNERROR$LONGINT$$WORD+0xa7>
    18c9:	48                   	dec    %eax
    18ca:	0f 84 77 00 00 00    	je     1947 <SYSTEM_POSIXTORUNERROR$LONGINT$$WORD+0xc7>
    18d0:	48                   	dec    %eax
    18d1:	74 54                	je     1927 <SYSTEM_POSIXTORUNERROR$LONGINT$$WORD+0xa7>
    18d3:	83 e8 03             	sub    $0x3,%eax
    18d6:	0f 84 6b 00 00 00    	je     1947 <SYSTEM_POSIXTORUNERROR$LONGINT$$WORD+0xc7>
    18dc:	83 e8 04             	sub    $0x4,%eax
    18df:	0f 84 6a 00 00 00    	je     194f <SYSTEM_POSIXTORUNERROR$LONGINT$$WORD+0xcf>
    18e5:	48                   	dec    %eax
    18e6:	74 47                	je     192f <SYSTEM_POSIXTORUNERROR$LONGINT$$WORD+0xaf>
    18e8:	48                   	dec    %eax
    18e9:	0f 8c 68 00 00 00    	jl     1957 <SYSTEM_POSIXTORUNERROR$LONGINT$$WORD+0xd7>
    18ef:	83 e8 01             	sub    $0x1,%eax
    18f2:	7e 1b                	jle    190f <SYSTEM_POSIXTORUNERROR$LONGINT$$WORD+0x8f>
    18f4:	83 e8 04             	sub    $0x4,%eax
    18f7:	74 3e                	je     1937 <SYSTEM_POSIXTORUNERROR$LONGINT$$WORD+0xb7>
    18f9:	83 e8 02             	sub    $0x2,%eax
    18fc:	74 49                	je     1947 <SYSTEM_POSIXTORUNERROR$LONGINT$$WORD+0xc7>
    18fe:	83 e8 02             	sub    $0x2,%eax
    1901:	74 34                	je     1937 <SYSTEM_POSIXTORUNERROR$LONGINT$$WORD+0xb7>
    1903:	83 e8 04             	sub    $0x4,%eax
    1906:	74 37                	je     193f <SYSTEM_POSIXTORUNERROR$LONGINT$$WORD+0xbf>
    1908:	83 e8 03             	sub    $0x3,%eax
    190b:	74 3a                	je     1947 <SYSTEM_POSIXTORUNERROR$LONGINT$$WORD+0xc7>
    190d:	eb 48                	jmp    1957 <SYSTEM_POSIXTORUNERROR$LONGINT$$WORD+0xd7>
    190f:	66 c7 45 f4 04 00    	movw   $0x4,-0xc(%ebp)
    1915:	eb 48                	jmp    195f <SYSTEM_POSIXTORUNERROR$LONGINT$$WORD+0xdf>
    1917:	66 c7 45 f4 02 00    	movw   $0x2,-0xc(%ebp)
    191d:	eb 40                	jmp    195f <SYSTEM_POSIXTORUNERROR$LONGINT$$WORD+0xdf>
    191f:	66 c7 45 f4 06 00    	movw   $0x6,-0xc(%ebp)
    1925:	eb 38                	jmp    195f <SYSTEM_POSIXTORUNERROR$LONGINT$$WORD+0xdf>
    1927:	66 c7 45 f4 d9 00    	movw   $0xd9,-0xc(%ebp)
    192d:	eb 30                	jmp    195f <SYSTEM_POSIXTORUNERROR$LONGINT$$WORD+0xdf>
    192f:	66 c7 45 f4 da 00    	movw   $0xda,-0xc(%ebp)
    1935:	eb 28                	jmp    195f <SYSTEM_POSIXTORUNERROR$LONGINT$$WORD+0xdf>
    1937:	66 c7 45 f4 65 00    	movw   $0x65,-0xc(%ebp)
    193d:	eb 20                	jmp    195f <SYSTEM_POSIXTORUNERROR$LONGINT$$WORD+0xdf>
    193f:	66 c7 45 f4 03 00    	movw   $0x3,-0xc(%ebp)
    1945:	eb 18                	jmp    195f <SYSTEM_POSIXTORUNERROR$LONGINT$$WORD+0xdf>
    1947:	66 c7 45 f4 05 00    	movw   $0x5,-0xc(%ebp)
    194d:	eb 10                	jmp    195f <SYSTEM_POSIXTORUNERROR$LONGINT$$WORD+0xdf>
    194f:	66 c7 45 f4 05 00    	movw   $0x5,-0xc(%ebp)
    1955:	eb 08                	jmp    195f <SYSTEM_POSIXTORUNERROR$LONGINT$$WORD+0xdf>
    1957:	66 8b 45 fc          	mov    -0x4(%ebp),%ax
    195b:	66 89 45 f4          	mov    %ax,-0xc(%ebp)
    195f:	8b 15 3c 51 02 00    	mov    0x2513c,%edx
    1965:	85 d2                	test   %edx,%edx
    1967:	74 09                	je     1972 <SYSTEM_POSIXTORUNERROR$LONGINT$$WORD+0xf2>
    1969:	a1 28 5d 02 00       	mov    0x25d28,%eax
    196e:	ff d2                	call   *%edx
    1970:	eb 05                	jmp    1977 <SYSTEM_POSIXTORUNERROR$LONGINT$$WORD+0xf7>
    1972:	b8 2c 5d 02 00       	mov    $0x25d2c,%eax
    1977:	66 8b 55 f4          	mov    -0xc(%ebp),%dx
    197b:	66 89 10             	mov    %dx,(%eax)
    197e:	66 8b 45 f4          	mov    -0xc(%ebp),%ax
    1982:	66 89 45 f8          	mov    %ax,-0x8(%ebp)
    1986:	66 8b 45 f8          	mov    -0x8(%ebp),%ax
    198a:	c9                   	leave  
    198b:	c3                   	ret    
    198c:	8d 74 26 00          	lea    0x0(%esi,%eiz,1),%esi

00001990 <SYSTEM_ERRNO2INOUTRES$$WORD>:
    1990:	55                   	push   %ebp
    1991:	89 e5                	mov    %esp,%ebp
    1993:	83 ec 04             	sub    $0x4,%esp
    1996:	e8 65 f2 ff ff       	call   c00 <FPC_SYS_GETERRNO>
    199b:	e8 e0 fe ff ff       	call   1880 <SYSTEM_POSIXTORUNERROR$LONGINT$$WORD>
    19a0:	66 89 45 fc          	mov    %ax,-0x4(%ebp)
    19a4:	8b 15 3c 51 02 00    	mov    0x2513c,%edx
    19aa:	85 d2                	test   %edx,%edx
    19ac:	74 09                	je     19b7 <SYSTEM_ERRNO2INOUTRES$$WORD+0x27>
    19ae:	a1 28 5d 02 00       	mov    0x25d28,%eax
    19b3:	ff d2                	call   *%edx
    19b5:	eb 05                	jmp    19bc <SYSTEM_ERRNO2INOUTRES$$WORD+0x2c>
    19b7:	b8 2c 5d 02 00       	mov    $0x25d2c,%eax
    19bc:	66 8b 55 fc          	mov    -0x4(%ebp),%dx
    19c0:	66 89 10             	mov    %dx,(%eax)
    19c3:	66 8b 45 fc          	mov    -0x4(%ebp),%ax
    19c7:	c9                   	leave  
    19c8:	c3                   	ret    
    19c9:	8d b4 26 00 00 00 00 	lea    0x0(%esi,%eiz,1),%esi

000019d0 <SYSTEM_DO_ISDEVICE$LONGINT$$BOOLEAN>:
    19d0:	55                   	push   %ebp
    19d1:	89 e5                	mov    %esp,%ebp
    19d3:	81 ec 08 01 00 00    	sub    $0x108,%esp
    19d9:	89 45 fc             	mov    %eax,-0x4(%ebp)
    19dc:	8d 8d f8 fe ff ff    	lea    -0x108(%ebp),%ecx
    19e2:	8b 45 fc             	mov    -0x4(%ebp),%eax
    19e5:	ba 01 54 00 00       	mov    $0x5401,%edx
    19ea:	e8 21 fb ff ff       	call   1510 <FPC_SYSC_IOCTL>
    19ef:	83 f8 ff             	cmp    $0xffffffff,%eax
    19f2:	0f 95 45 f8          	setne  -0x8(%ebp)
    19f6:	8a 45 f8             	mov    -0x8(%ebp),%al
    19f9:	c9                   	leave  
    19fa:	c3                   	ret    
    19fb:	8d 74 26 00          	lea    0x0(%esi,%eiz,1),%esi
    19ff:	90                   	nop

00001a00 <SYSTEM_CPUID_SUPPORT$$BOOLEAN>:
    1a00:	83 ec 04             	sub    $0x4,%esp
    1a03:	53                   	push   %ebx
    1a04:	9c                   	pushf  
    1a05:	9c                   	pushf  
    1a06:	58                   	pop    %eax
    1a07:	89 c3                	mov    %eax,%ebx
    1a09:	35 00 00 20 00       	xor    $0x200000,%eax
    1a0e:	50                   	push   %eax
    1a0f:	9d                   	popf   
    1a10:	9c                   	pushf  
    1a11:	58                   	pop    %eax
    1a12:	9d                   	popf   
    1a13:	25 00 00 20 00       	and    $0x200000,%eax
    1a18:	81 e3 00 00 20 00    	and    $0x200000,%ebx
    1a1e:	39 d8                	cmp    %ebx,%eax
    1a20:	0f 95 c0             	setne  %al
    1a23:	5b                   	pop    %ebx
    1a24:	83 c4 04             	add    $0x4,%esp
    1a27:	c3                   	ret    
    1a28:	8d b4 26 00 00 00 00 	lea    0x0(%esi,%eiz,1),%esi
    1a2f:	90                   	nop

00001a30 <SYSTEM_SSE_SUPPORT$$BOOLEAN>:
    1a30:	55                   	push   %ebp
    1a31:	89 e5                	mov    %esp,%ebp
    1a33:	83 ec 08             	sub    $0x8,%esp
    1a36:	e8 c5 ff ff ff       	call   1a00 <SYSTEM_CPUID_SUPPORT$$BOOLEAN>
    1a3b:	84 c0                	test   %al,%al
    1a3d:	75 02                	jne    1a41 <SYSTEM_SSE_SUPPORT$$BOOLEAN+0x11>
    1a3f:	eb 31                	jmp    1a72 <SYSTEM_SSE_SUPPORT$$BOOLEAN+0x42>
    1a41:	53                   	push   %ebx
    1a42:	b8 01 00 00 00       	mov    $0x1,%eax
    1a47:	0f a2                	cpuid  
    1a49:	89 55 f8             	mov    %edx,-0x8(%ebp)
    1a4c:	5b                   	pop    %ebx
    1a4d:	8b 45 f8             	mov    -0x8(%ebp),%eax
    1a50:	25 00 00 00 02       	and    $0x2000000,%eax
    1a55:	85 c0                	test   %eax,%eax
    1a57:	75 02                	jne    1a5b <SYSTEM_SSE_SUPPORT$$BOOLEAN+0x2b>
    1a59:	eb 11                	jmp    1a6c <SYSTEM_SSE_SUPPORT$$BOOLEAN+0x3c>
    1a5b:	80 3d d8 5d 02 00 00 	cmpb   $0x0,0x25dd8
    1a62:	75 02                	jne    1a66 <SYSTEM_SSE_SUPPORT$$BOOLEAN+0x36>
    1a64:	eb 06                	jmp    1a6c <SYSTEM_SSE_SUPPORT$$BOOLEAN+0x3c>
    1a66:	c6 45 fc 01          	movb   $0x1,-0x4(%ebp)
    1a6a:	eb 04                	jmp    1a70 <SYSTEM_SSE_SUPPORT$$BOOLEAN+0x40>
    1a6c:	c6 45 fc 00          	movb   $0x0,-0x4(%ebp)
    1a70:	eb 04                	jmp    1a76 <SYSTEM_SSE_SUPPORT$$BOOLEAN+0x46>
    1a72:	c6 45 fc 00          	movb   $0x0,-0x4(%ebp)
    1a76:	8a 45 fc             	mov    -0x4(%ebp),%al
    1a79:	c9                   	leave  
    1a7a:	c3                   	ret    
    1a7b:	8d 74 26 00          	lea    0x0(%esi,%eiz,1),%esi
    1a7f:	90                   	nop

00001a80 <SYSTEM_MMX_SUPPORT$$BOOLEAN>:
    1a80:	55                   	push   %ebp
    1a81:	89 e5                	mov    %esp,%ebp
    1a83:	83 ec 08             	sub    $0x8,%esp
    1a86:	e8 75 ff ff ff       	call   1a00 <SYSTEM_CPUID_SUPPORT$$BOOLEAN>
    1a8b:	84 c0                	test   %al,%al
    1a8d:	75 02                	jne    1a91 <SYSTEM_MMX_SUPPORT$$BOOLEAN+0x11>
    1a8f:	eb 1c                	jmp    1aad <SYSTEM_MMX_SUPPORT$$BOOLEAN+0x2d>
    1a91:	53                   	push   %ebx
    1a92:	b8 01 00 00 00       	mov    $0x1,%eax
    1a97:	0f a2                	cpuid  
    1a99:	89 55 f8             	mov    %edx,-0x8(%ebp)
    1a9c:	5b                   	pop    %ebx
    1a9d:	8b 45 f8             	mov    -0x8(%ebp),%eax
    1aa0:	25 00 00 80 00       	and    $0x800000,%eax
    1aa5:	85 c0                	test   %eax,%eax
    1aa7:	0f 95 45 fc          	setne  -0x4(%ebp)
    1aab:	eb 04                	jmp    1ab1 <SYSTEM_MMX_SUPPORT$$BOOLEAN+0x31>
    1aad:	c6 45 fc 00          	movb   $0x0,-0x4(%ebp)
    1ab1:	8a 45 fc             	mov    -0x4(%ebp),%al
    1ab4:	c9                   	leave  
    1ab5:	c3                   	ret    
    1ab6:	8d b4 26 00 00 00 00 	lea    0x0(%esi,%eiz,1),%esi
    1abd:	8d 76 00             	lea    0x0(%esi),%esi

00001ac0 <SYSTEM_SMALLFORWARDMOVE_3>:
    1ac0:	ff 24 8d d0 1a 00 00 	jmp    *0x1ad0(,%ecx,4)
    1ac7:	8d b4 26 00 00 00 00 	lea    0x0(%esi,%eiz,1),%esi
    1ace:	89 f6                	mov    %esi,%esi
    1ad0:	52                   	push   %edx
    1ad1:	1c 00                	sbb    $0x0,%al
    1ad3:	00 4b 1c             	add    %cl,0x1c(%ebx)
    1ad6:	00 00                	add    %al,(%eax)
    1ad8:	12 1c 00             	adc    (%eax,%eax,1),%bl
    1adb:	00 d2                	add    %dl,%dl
    1add:	1b 00                	sbb    (%eax),%eax
    1adf:	00 94 1b 00 00 45 1c 	add    %dl,0x1c450000(%ebx,%ebx,1)
    1ae6:	00 00                	add    %al,(%eax)
    1ae8:	0c 1c                	or     $0x1c,%al
    1aea:	00 00                	add    %al,(%eax)
    1aec:	c5 1b                	lds    (%ebx),%ebx
    1aee:	00 00                	add    %al,(%eax)
    1af0:	8e 1b                	mov    (%ebx),%ds
    1af2:	00 00                	add    %al,(%eax)
    1af4:	3f                   	aas    
    1af5:	1c 00                	sbb    $0x0,%al
    1af7:	00 06                	add    %al,(%esi)
    1af9:	1c 00                	sbb    $0x0,%al
    1afb:	00 bf 1b 00 00 88    	add    %bh,-0x77ffffe5(%edi)
    1b01:	1b 00                	sbb    (%eax),%eax
    1b03:	00 39                	add    %bh,(%ecx)
    1b05:	1c 00                	sbb    $0x0,%al
    1b07:	00 00                	add    %al,(%eax)
    1b09:	1c 00                	sbb    $0x0,%al
    1b0b:	00 b9 1b 00 00 82    	add    %bh,-0x7dffffe5(%ecx)
    1b11:	1b 00                	sbb    (%eax),%eax
    1b13:	00 33                	add    %dh,(%ebx)
    1b15:	1c 00                	sbb    $0x0,%al
    1b17:	00 fa                	add    %bh,%dl
    1b19:	1b 00                	sbb    (%eax),%eax
    1b1b:	00 b3 1b 00 00 7c    	add    %dh,0x7c00001b(%ebx)
    1b21:	1b 00                	sbb    (%eax),%eax
    1b23:	00 2d 1c 00 00 f4    	add    %ch,0xf400001c
    1b29:	1b 00                	sbb    (%eax),%eax
    1b2b:	00 ad 1b 00 00 76    	add    %ch,0x7600001b(%ebp)
    1b31:	1b 00                	sbb    (%eax),%eax
    1b33:	00 27                	add    %ah,(%edi)
    1b35:	1c 00                	sbb    $0x0,%al
    1b37:	00 ee                	add    %ch,%dh
    1b39:	1b 00                	sbb    (%eax),%eax
    1b3b:	00 a7 1b 00 00 70    	add    %ah,0x7000001b(%edi)
    1b41:	1b 00                	sbb    (%eax),%eax
    1b43:	00 21                	add    %ah,(%ecx)
    1b45:	1c 00                	sbb    $0x0,%al
    1b47:	00 e8                	add    %ch,%al
    1b49:	1b 00                	sbb    (%eax),%eax
    1b4b:	00 a1 1b 00 00 6a    	add    %ah,0x6a00001b(%ecx)
    1b51:	1b 00                	sbb    (%eax),%eax
    1b53:	00 1b                	add    %bl,(%ebx)
    1b55:	1c 00                	sbb    $0x0,%al
    1b57:	00 e2                	add    %ah,%dl
    1b59:	1b 00                	sbb    (%eax),%eax
    1b5b:	00 9b 1b 00 00 64    	add    %bl,0x6400001b(%ebx)
    1b61:	1b 00                	sbb    (%eax),%eax
    1b63:	00 8b 48 dc 89 4a    	add    %cl,0x4a89dc48(%ebx)
    1b69:	dc 8b 48 e0 89 4a    	fmull  0x4a89e048(%ebx)
    1b6f:	e0 8b                	loopne 1afc <SYSTEM_SMALLFORWARDMOVE_3+0x3c>
    1b71:	48                   	dec    %eax
    1b72:	e4 89                	in     $0x89,%al
    1b74:	4a                   	dec    %edx
    1b75:	e4 8b                	in     $0x8b,%al
    1b77:	48                   	dec    %eax
    1b78:	e8 89 4a e8 8b       	call   8be86606 <U_SI_PRC_DLEXITPROC+0x8be3dbe6>
    1b7d:	48                   	dec    %eax
    1b7e:	ec                   	in     (%dx),%al
    1b7f:	89 4a ec             	mov    %ecx,-0x14(%edx)
    1b82:	8b 48 f0             	mov    -0x10(%eax),%ecx
    1b85:	89 4a f0             	mov    %ecx,-0x10(%edx)
    1b88:	8b 48 f4             	mov    -0xc(%eax),%ecx
    1b8b:	89 4a f4             	mov    %ecx,-0xc(%edx)
    1b8e:	8b 48 f8             	mov    -0x8(%eax),%ecx
    1b91:	89 4a f8             	mov    %ecx,-0x8(%edx)
    1b94:	8b 48 fc             	mov    -0x4(%eax),%ecx
    1b97:	89 4a fc             	mov    %ecx,-0x4(%edx)
    1b9a:	c3                   	ret    
    1b9b:	8b 48 dd             	mov    -0x23(%eax),%ecx
    1b9e:	89 4a dd             	mov    %ecx,-0x23(%edx)
    1ba1:	8b 48 e1             	mov    -0x1f(%eax),%ecx
    1ba4:	89 4a e1             	mov    %ecx,-0x1f(%edx)
    1ba7:	8b 48 e5             	mov    -0x1b(%eax),%ecx
    1baa:	89 4a e5             	mov    %ecx,-0x1b(%edx)
    1bad:	8b 48 e9             	mov    -0x17(%eax),%ecx
    1bb0:	89 4a e9             	mov    %ecx,-0x17(%edx)
    1bb3:	8b 48 ed             	mov    -0x13(%eax),%ecx
    1bb6:	89 4a ed             	mov    %ecx,-0x13(%edx)
    1bb9:	8b 48 f1             	mov    -0xf(%eax),%ecx
    1bbc:	89 4a f1             	mov    %ecx,-0xf(%edx)
    1bbf:	8b 48 f5             	mov    -0xb(%eax),%ecx
    1bc2:	89 4a f5             	mov    %ecx,-0xb(%edx)
    1bc5:	8b 48 f9             	mov    -0x7(%eax),%ecx
    1bc8:	89 4a f9             	mov    %ecx,-0x7(%edx)
    1bcb:	8b 48 fc             	mov    -0x4(%eax),%ecx
    1bce:	89 4a fc             	mov    %ecx,-0x4(%edx)
    1bd1:	c3                   	ret    
    1bd2:	0f b7 48 fd          	movzwl -0x3(%eax),%ecx
    1bd6:	66 89 4a fd          	mov    %cx,-0x3(%edx)
    1bda:	0f b6 48 ff          	movzbl -0x1(%eax),%ecx
    1bde:	88 4a ff             	mov    %cl,-0x1(%edx)
    1be1:	c3                   	ret    
    1be2:	8b 48 de             	mov    -0x22(%eax),%ecx
    1be5:	89 4a de             	mov    %ecx,-0x22(%edx)
    1be8:	8b 48 e2             	mov    -0x1e(%eax),%ecx
    1beb:	89 4a e2             	mov    %ecx,-0x1e(%edx)
    1bee:	8b 48 e6             	mov    -0x1a(%eax),%ecx
    1bf1:	89 4a e6             	mov    %ecx,-0x1a(%edx)
    1bf4:	8b 48 ea             	mov    -0x16(%eax),%ecx
    1bf7:	89 4a ea             	mov    %ecx,-0x16(%edx)
    1bfa:	8b 48 ee             	mov    -0x12(%eax),%ecx
    1bfd:	89 4a ee             	mov    %ecx,-0x12(%edx)
    1c00:	8b 48 f2             	mov    -0xe(%eax),%ecx
    1c03:	89 4a f2             	mov    %ecx,-0xe(%edx)
    1c06:	8b 48 f6             	mov    -0xa(%eax),%ecx
    1c09:	89 4a f6             	mov    %ecx,-0xa(%edx)
    1c0c:	8b 48 fa             	mov    -0x6(%eax),%ecx
    1c0f:	89 4a fa             	mov    %ecx,-0x6(%edx)
    1c12:	0f b7 48 fe          	movzwl -0x2(%eax),%ecx
    1c16:	66 89 4a fe          	mov    %cx,-0x2(%edx)
    1c1a:	c3                   	ret    
    1c1b:	8b 48 df             	mov    -0x21(%eax),%ecx
    1c1e:	89 4a df             	mov    %ecx,-0x21(%edx)
    1c21:	8b 48 e3             	mov    -0x1d(%eax),%ecx
    1c24:	89 4a e3             	mov    %ecx,-0x1d(%edx)
    1c27:	8b 48 e7             	mov    -0x19(%eax),%ecx
    1c2a:	89 4a e7             	mov    %ecx,-0x19(%edx)
    1c2d:	8b 48 eb             	mov    -0x15(%eax),%ecx
    1c30:	89 4a eb             	mov    %ecx,-0x15(%edx)
    1c33:	8b 48 ef             	mov    -0x11(%eax),%ecx
    1c36:	89 4a ef             	mov    %ecx,-0x11(%edx)
    1c39:	8b 48 f3             	mov    -0xd(%eax),%ecx
    1c3c:	89 4a f3             	mov    %ecx,-0xd(%edx)
    1c3f:	8b 48 f7             	mov    -0x9(%eax),%ecx
    1c42:	89 4a f7             	mov    %ecx,-0x9(%edx)
    1c45:	8b 48 fb             	mov    -0x5(%eax),%ecx
    1c48:	89 4a fb             	mov    %ecx,-0x5(%edx)
    1c4b:	0f b6 48 ff          	movzbl -0x1(%eax),%ecx
    1c4f:	88 4a ff             	mov    %cl,-0x1(%edx)
    1c52:	c3                   	ret    
    1c53:	8d b4 26 00 00 00 00 	lea    0x0(%esi,%eiz,1),%esi
    1c5a:	8d b6 00 00 00 00    	lea    0x0(%esi),%esi

00001c60 <SYSTEM_SMALLBACKWARDMOVE_3>:
    1c60:	ff 24 8d 70 1c 00 00 	jmp    *0x1c70(,%ecx,4)
    1c67:	8d b4 26 00 00 00 00 	lea    0x0(%esi,%eiz,1),%esi
    1c6e:	89 f6                	mov    %esi,%esi
    1c70:	e8 1d 00 00 e3       	call   e3001c92 <U_SI_PRC_DLEXITPROC+0xe2fb9272>
    1c75:	1d 00 00 ac 1d       	sbb    $0x1dac0000,%eax
    1c7a:	00 00                	add    %al,(%eax)
    1c7c:	6e                   	outsb  %ds:(%esi),(%dx)
    1c7d:	1d 00 00 34 1d       	sbb    $0x1d340000,%eax
    1c82:	00 00                	add    %al,(%eax)
    1c84:	dd 1d 00 00 a6 1d    	fstpl  0x1da60000
    1c8a:	00 00                	add    %al,(%eax)
    1c8c:	63 1d 00 00 2e 1d    	arpl   %bx,0x1d2e0000
    1c92:	00 00                	add    %al,(%eax)
    1c94:	d7                   	xlat   %ds:(%ebx)
    1c95:	1d 00 00 a0 1d       	sbb    $0x1da00000,%eax
    1c9a:	00 00                	add    %al,(%eax)
    1c9c:	5d                   	pop    %ebp
    1c9d:	1d 00 00 28 1d       	sbb    $0x1d280000,%eax
    1ca2:	00 00                	add    %al,(%eax)
    1ca4:	d1 1d 00 00 9a 1d    	rcrl   0x1d9a0000
    1caa:	00 00                	add    %al,(%eax)
    1cac:	57                   	push   %edi
    1cad:	1d 00 00 22 1d       	sbb    $0x1d220000,%eax
    1cb2:	00 00                	add    %al,(%eax)
    1cb4:	cb                   	lret   
    1cb5:	1d 00 00 94 1d       	sbb    $0x1d940000,%eax
    1cba:	00 00                	add    %al,(%eax)
    1cbc:	51                   	push   %ecx
    1cbd:	1d 00 00 1c 1d       	sbb    $0x1d1c0000,%eax
    1cc2:	00 00                	add    %al,(%eax)
    1cc4:	c5 1d 00 00 8e 1d    	lds    0x1d8e0000,%ebx
    1cca:	00 00                	add    %al,(%eax)
    1ccc:	4b                   	dec    %ebx
    1ccd:	1d 00 00 16 1d       	sbb    $0x1d160000,%eax
    1cd2:	00 00                	add    %al,(%eax)
    1cd4:	bf 1d 00 00 88       	mov    $0x8800001d,%edi
    1cd9:	1d 00 00 45 1d       	sbb    $0x1d450000,%eax
    1cde:	00 00                	add    %al,(%eax)
    1ce0:	10 1d 00 00 b9 1d    	adc    %bl,0x1db90000
    1ce6:	00 00                	add    %al,(%eax)
    1ce8:	82                   	(bad)  
    1ce9:	1d 00 00 3f 1d       	sbb    $0x1d3f0000,%eax
    1cee:	00 00                	add    %al,(%eax)
    1cf0:	0a 1d 00 00 b3 1d    	or     0x1db30000,%bl
    1cf6:	00 00                	add    %al,(%eax)
    1cf8:	7c 1d                	jl     1d17 <SYSTEM_SMALLBACKWARDMOVE_3+0xb7>
    1cfa:	00 00                	add    %al,(%eax)
    1cfc:	39 1d 00 00 04 1d    	cmp    %ebx,0x1d040000
    1d02:	00 00                	add    %al,(%eax)
    1d04:	8b 48 20             	mov    0x20(%eax),%ecx
    1d07:	89 4a 20             	mov    %ecx,0x20(%edx)
    1d0a:	8b 48 1c             	mov    0x1c(%eax),%ecx
    1d0d:	89 4a 1c             	mov    %ecx,0x1c(%edx)
    1d10:	8b 48 18             	mov    0x18(%eax),%ecx
    1d13:	89 4a 18             	mov    %ecx,0x18(%edx)
    1d16:	8b 48 14             	mov    0x14(%eax),%ecx
    1d19:	89 4a 14             	mov    %ecx,0x14(%edx)
    1d1c:	8b 48 10             	mov    0x10(%eax),%ecx
    1d1f:	89 4a 10             	mov    %ecx,0x10(%edx)
    1d22:	8b 48 0c             	mov    0xc(%eax),%ecx
    1d25:	89 4a 0c             	mov    %ecx,0xc(%edx)
    1d28:	8b 48 08             	mov    0x8(%eax),%ecx
    1d2b:	89 4a 08             	mov    %ecx,0x8(%edx)
    1d2e:	8b 48 04             	mov    0x4(%eax),%ecx
    1d31:	89 4a 04             	mov    %ecx,0x4(%edx)
    1d34:	8b 08                	mov    (%eax),%ecx
    1d36:	89 0a                	mov    %ecx,(%edx)
    1d38:	c3                   	ret    
    1d39:	8b 48 1f             	mov    0x1f(%eax),%ecx
    1d3c:	89 4a 1f             	mov    %ecx,0x1f(%edx)
    1d3f:	8b 48 1b             	mov    0x1b(%eax),%ecx
    1d42:	89 4a 1b             	mov    %ecx,0x1b(%edx)
    1d45:	8b 48 17             	mov    0x17(%eax),%ecx
    1d48:	89 4a 17             	mov    %ecx,0x17(%edx)
    1d4b:	8b 48 13             	mov    0x13(%eax),%ecx
    1d4e:	89 4a 13             	mov    %ecx,0x13(%edx)
    1d51:	8b 48 0f             	mov    0xf(%eax),%ecx
    1d54:	89 4a 0f             	mov    %ecx,0xf(%edx)
    1d57:	8b 48 0b             	mov    0xb(%eax),%ecx
    1d5a:	89 4a 0b             	mov    %ecx,0xb(%edx)
    1d5d:	8b 48 07             	mov    0x7(%eax),%ecx
    1d60:	89 4a 07             	mov    %ecx,0x7(%edx)
    1d63:	8b 48 03             	mov    0x3(%eax),%ecx
    1d66:	89 4a 03             	mov    %ecx,0x3(%edx)
    1d69:	8b 08                	mov    (%eax),%ecx
    1d6b:	89 0a                	mov    %ecx,(%edx)
    1d6d:	c3                   	ret    
    1d6e:	0f b7 48 01          	movzwl 0x1(%eax),%ecx
    1d72:	66 89 4a 01          	mov    %cx,0x1(%edx)
    1d76:	0f b6 08             	movzbl (%eax),%ecx
    1d79:	88 0a                	mov    %cl,(%edx)
    1d7b:	c3                   	ret    
    1d7c:	8b 48 1e             	mov    0x1e(%eax),%ecx
    1d7f:	89 4a 1e             	mov    %ecx,0x1e(%edx)
    1d82:	8b 48 1a             	mov    0x1a(%eax),%ecx
    1d85:	89 4a 1a             	mov    %ecx,0x1a(%edx)
    1d88:	8b 48 16             	mov    0x16(%eax),%ecx
    1d8b:	89 4a 16             	mov    %ecx,0x16(%edx)
    1d8e:	8b 48 12             	mov    0x12(%eax),%ecx
    1d91:	89 4a 12             	mov    %ecx,0x12(%edx)
    1d94:	8b 48 0e             	mov    0xe(%eax),%ecx
    1d97:	89 4a 0e             	mov    %ecx,0xe(%edx)
    1d9a:	8b 48 0a             	mov    0xa(%eax),%ecx
    1d9d:	89 4a 0a             	mov    %ecx,0xa(%edx)
    1da0:	8b 48 06             	mov    0x6(%eax),%ecx
    1da3:	89 4a 06             	mov    %ecx,0x6(%edx)
    1da6:	8b 48 02             	mov    0x2(%eax),%ecx
    1da9:	89 4a 02             	mov    %ecx,0x2(%edx)
    1dac:	0f b7 08             	movzwl (%eax),%ecx
    1daf:	66 89 0a             	mov    %cx,(%edx)
    1db2:	c3                   	ret    
    1db3:	8b 48 1d             	mov    0x1d(%eax),%ecx
    1db6:	89 4a 1d             	mov    %ecx,0x1d(%edx)
    1db9:	8b 48 19             	mov    0x19(%eax),%ecx
    1dbc:	89 4a 19             	mov    %ecx,0x19(%edx)
    1dbf:	8b 48 15             	mov    0x15(%eax),%ecx
    1dc2:	89 4a 15             	mov    %ecx,0x15(%edx)
    1dc5:	8b 48 11             	mov    0x11(%eax),%ecx
    1dc8:	89 4a 11             	mov    %ecx,0x11(%edx)
    1dcb:	8b 48 0d             	mov    0xd(%eax),%ecx
    1dce:	89 4a 0d             	mov    %ecx,0xd(%edx)
    1dd1:	8b 48 09             	mov    0x9(%eax),%ecx
    1dd4:	89 4a 09             	mov    %ecx,0x9(%edx)
    1dd7:	8b 48 05             	mov    0x5(%eax),%ecx
    1dda:	89 4a 05             	mov    %ecx,0x5(%edx)
    1ddd:	8b 48 01             	mov    0x1(%eax),%ecx
    1de0:	89 4a 01             	mov    %ecx,0x1(%edx)
    1de3:	0f b6 08             	movzbl (%eax),%ecx
    1de6:	88 0a                	mov    %cl,(%edx)
    1de8:	c3                   	ret    
    1de9:	8d b4 26 00 00 00 00 	lea    0x0(%esi,%eiz,1),%esi

00001df0 <SYSTEM_FORWARDS_VALGRIND>:
    1df0:	56                   	push   %esi
    1df1:	57                   	push   %edi
    1df2:	89 c6                	mov    %eax,%esi
    1df4:	89 d7                	mov    %edx,%edi
    1df6:	f3 a4                	rep movsb %ds:(%esi),%es:(%edi)
    1df8:	5f                   	pop    %edi
    1df9:	5e                   	pop    %esi
    1dfa:	c3                   	ret    
    1dfb:	8d 74 26 00          	lea    0x0(%esi,%eiz,1),%esi
    1dff:	90                   	nop

00001e00 <SYSTEM_BACKWARDS_VALGRIND>:
    1e00:	56                   	push   %esi
    1e01:	57                   	push   %edi
    1e02:	8d 74 08 ff          	lea    -0x1(%eax,%ecx,1),%esi
    1e06:	8d 7c 0a ff          	lea    -0x1(%edx,%ecx,1),%edi
    1e0a:	8a 06                	mov    (%esi),%al
    1e0c:	88 07                	mov    %al,(%edi)
    1e0e:	4e                   	dec    %esi
    1e0f:	4f                   	dec    %edi
    1e10:	49                   	dec    %ecx
    1e11:	75 f7                	jne    1e0a <SYSTEM_BACKWARDS_VALGRIND+0xa>
    1e13:	5f                   	pop    %edi
    1e14:	5e                   	pop    %esi
    1e15:	c3                   	ret    
    1e16:	8d b4 26 00 00 00 00 	lea    0x0(%esi,%eiz,1),%esi
    1e1d:	8d 76 00             	lea    0x0(%esi),%esi

00001e20 <SYSTEM_FORWARDS_IA32_3>:
    1e20:	53                   	push   %ebx
    1e21:	89 d3                	mov    %edx,%ebx
    1e23:	df 28                	fildll (%eax)
    1e25:	01 c8                	add    %ecx,%eax
    1e27:	01 d1                	add    %edx,%ecx
    1e29:	83 c2 07             	add    $0x7,%edx
    1e2c:	83 e2 f8             	and    $0xfffffff8,%edx
    1e2f:	29 d1                	sub    %edx,%ecx
    1e31:	01 ca                	add    %ecx,%edx
    1e33:	83 e9 10             	sub    $0x10,%ecx
    1e36:	f7 d9                	neg    %ecx
    1e38:	df 6c 08 f0          	fildll -0x10(%eax,%ecx,1)
    1e3c:	df 7c 0a f0          	fistpll -0x10(%edx,%ecx,1)
    1e40:	df 6c 08 f8          	fildll -0x8(%eax,%ecx,1)
    1e44:	df 7c 0a f8          	fistpll -0x8(%edx,%ecx,1)
    1e48:	83 c1 10             	add    $0x10,%ecx
    1e4b:	7e eb                	jle    1e38 <SYSTEM_FORWARDS_IA32_3+0x18>
    1e4d:	df 3b                	fistpll (%ebx)
    1e4f:	f7 d9                	neg    %ecx
    1e51:	83 c1 10             	add    $0x10,%ecx
    1e54:	5b                   	pop    %ebx
    1e55:	e9 66 fc ff ff       	jmp    1ac0 <SYSTEM_SMALLFORWARDMOVE_3>
    1e5a:	c3                   	ret    
    1e5b:	8d 74 26 00          	lea    0x0(%esi,%eiz,1),%esi
    1e5f:	90                   	nop

00001e60 <SYSTEM_BACKWARDS_IA32_3>:
    1e60:	53                   	push   %ebx
    1e61:	df 6c 08 f8          	fildll -0x8(%eax,%ecx,1)
    1e65:	8d 1c 0a             	lea    (%edx,%ecx,1),%ebx
    1e68:	83 e3 07             	and    $0x7,%ebx
    1e6b:	29 d9                	sub    %ebx,%ecx
    1e6d:	01 cb                	add    %ecx,%ebx
    1e6f:	83 e9 10             	sub    $0x10,%ecx
    1e72:	df 2c 08             	fildll (%eax,%ecx,1)
    1e75:	df 6c 08 08          	fildll 0x8(%eax,%ecx,1)
    1e79:	df 7c 0a 08          	fistpll 0x8(%edx,%ecx,1)
    1e7d:	df 3c 0a             	fistpll (%edx,%ecx,1)
    1e80:	83 e9 10             	sub    $0x10,%ecx
    1e83:	7d ed                	jge    1e72 <SYSTEM_BACKWARDS_IA32_3+0x12>
    1e85:	df 7c 1a f8          	fistpll -0x8(%edx,%ebx,1)
    1e89:	83 c1 10             	add    $0x10,%ecx
    1e8c:	5b                   	pop    %ebx
    1e8d:	e9 ce fd ff ff       	jmp    1c60 <SYSTEM_SMALLBACKWARDMOVE_3>
    1e92:	c3                   	ret    
    1e93:	8d b4 26 00 00 00 00 	lea    0x0(%esi,%eiz,1),%esi
    1e9a:	8d b6 00 00 00 00    	lea    0x0(%esi),%esi

00001ea0 <SYSTEM_FORWARDS_MMX_3>:
    1ea0:	81 f9 00 04 00 00    	cmp    $0x400,%ecx
    1ea6:	7d 5f                	jge    1f07 <SYSTEM_FORWARDS_MMX_3+0x67>
    1ea8:	83 f9 48             	cmp    $0x48,%ecx
    1eab:	0f 8c 6f ff ff ff    	jl     1e20 <SYSTEM_FORWARDS_IA32_3>
    1eb1:	53                   	push   %ebx
    1eb2:	89 d3                	mov    %edx,%ebx
    1eb4:	0f 6f 00             	movq   (%eax),%mm0
    1eb7:	01 c8                	add    %ecx,%eax
    1eb9:	01 d1                	add    %edx,%ecx
    1ebb:	83 c2 07             	add    $0x7,%edx
    1ebe:	83 e2 f8             	and    $0xfffffff8,%edx
    1ec1:	29 d1                	sub    %edx,%ecx
    1ec3:	01 ca                	add    %ecx,%edx
    1ec5:	83 e9 20             	sub    $0x20,%ecx
    1ec8:	f7 d9                	neg    %ecx
    1eca:	0f 6f 4c 08 e0       	movq   -0x20(%eax,%ecx,1),%mm1
    1ecf:	0f 6f 54 08 e8       	movq   -0x18(%eax,%ecx,1),%mm2
    1ed4:	0f 6f 5c 08 f0       	movq   -0x10(%eax,%ecx,1),%mm3
    1ed9:	0f 6f 64 08 f8       	movq   -0x8(%eax,%ecx,1),%mm4
    1ede:	0f 7f 4c 0a e0       	movq   %mm1,-0x20(%edx,%ecx,1)
    1ee3:	0f 7f 54 0a e8       	movq   %mm2,-0x18(%edx,%ecx,1)
    1ee8:	0f 7f 5c 0a f0       	movq   %mm3,-0x10(%edx,%ecx,1)
    1eed:	0f 7f 64 0a f8       	movq   %mm4,-0x8(%edx,%ecx,1)
    1ef2:	83 c1 20             	add    $0x20,%ecx
    1ef5:	7e d3                	jle    1eca <SYSTEM_FORWARDS_MMX_3+0x2a>
    1ef7:	0f 7f 03             	movq   %mm0,(%ebx)
    1efa:	0f 77                	emms   
    1efc:	5b                   	pop    %ebx
    1efd:	f7 d9                	neg    %ecx
    1eff:	83 c1 20             	add    $0x20,%ecx
    1f02:	e9 b9 fb ff ff       	jmp    1ac0 <SYSTEM_SMALLFORWARDMOVE_3>
    1f07:	53                   	push   %ebx
    1f08:	89 cb                	mov    %ecx,%ebx
    1f0a:	f7 c2 0f 00 00 00    	test   $0xf,%edx
    1f10:	74 15                	je     1f27 <SYSTEM_FORWARDS_MMX_3+0x87>
    1f12:	89 d1                	mov    %edx,%ecx
    1f14:	83 c1 0f             	add    $0xf,%ecx
    1f17:	83 e1 f0             	and    $0xfffffff0,%ecx
    1f1a:	29 d1                	sub    %edx,%ecx
    1f1c:	01 c8                	add    %ecx,%eax
    1f1e:	01 ca                	add    %ecx,%edx
    1f20:	29 cb                	sub    %ecx,%ebx
    1f22:	e8 99 fb ff ff       	call   1ac0 <SYSTEM_SMALLFORWARDMOVE_3>
    1f27:	89 d9                	mov    %ebx,%ecx
    1f29:	83 e1 f0             	and    $0xfffffff0,%ecx
    1f2c:	29 cb                	sub    %ecx,%ebx
    1f2e:	56                   	push   %esi
    1f2f:	57                   	push   %edi
    1f30:	89 c6                	mov    %eax,%esi
    1f32:	89 d7                	mov    %edx,%edi
    1f34:	89 c8                	mov    %ecx,%eax
    1f36:	83 e0 c0             	and    $0xffffffc0,%eax
    1f39:	83 e1 3f             	and    $0x3f,%ecx
    1f3c:	01 c6                	add    %eax,%esi
    1f3e:	01 c7                	add    %eax,%edi
    1f40:	c1 e8 03             	shr    $0x3,%eax
    1f43:	f7 d8                	neg    %eax
    1f45:	0f 6f 04 c6          	movq   (%esi,%eax,8),%mm0
    1f49:	0f 6f 4c c6 08       	movq   0x8(%esi,%eax,8),%mm1
    1f4e:	0f 6f 54 c6 10       	movq   0x10(%esi,%eax,8),%mm2
    1f53:	0f 6f 5c c6 18       	movq   0x18(%esi,%eax,8),%mm3
    1f58:	0f 6f 64 c6 20       	movq   0x20(%esi,%eax,8),%mm4
    1f5d:	0f 6f 6c c6 28       	movq   0x28(%esi,%eax,8),%mm5
    1f62:	0f 6f 74 c6 30       	movq   0x30(%esi,%eax,8),%mm6
    1f67:	0f 6f 7c c6 38       	movq   0x38(%esi,%eax,8),%mm7
    1f6c:	0f 7f 04 c7          	movq   %mm0,(%edi,%eax,8)
    1f70:	0f 7f 4c c7 08       	movq   %mm1,0x8(%edi,%eax,8)
    1f75:	0f 7f 54 c7 10       	movq   %mm2,0x10(%edi,%eax,8)
    1f7a:	0f 7f 5c c7 18       	movq   %mm3,0x18(%edi,%eax,8)
    1f7f:	0f 7f 64 c7 20       	movq   %mm4,0x20(%edi,%eax,8)
    1f84:	0f 7f 6c c7 28       	movq   %mm5,0x28(%edi,%eax,8)
    1f89:	0f 7f 74 c7 30       	movq   %mm6,0x30(%edi,%eax,8)
    1f8e:	0f 7f 7c c7 38       	movq   %mm7,0x38(%edi,%eax,8)
    1f93:	83 c0 08             	add    $0x8,%eax
    1f96:	75 ad                	jne    1f45 <SYSTEM_FORWARDS_MMX_3+0xa5>
    1f98:	0f 77                	emms   
    1f9a:	01 d9                	add    %ebx,%ecx
    1f9c:	c1 e9 02             	shr    $0x2,%ecx
    1f9f:	f3 a5                	rep movsl %ds:(%esi),%es:(%edi)
    1fa1:	89 d9                	mov    %ebx,%ecx
    1fa3:	83 e1 03             	and    $0x3,%ecx
    1fa6:	f3 a4                	rep movsb %ds:(%esi),%es:(%edi)
    1fa8:	5f                   	pop    %edi
    1fa9:	5e                   	pop    %esi
    1faa:	5b                   	pop    %ebx
    1fab:	c3                   	ret    
    1fac:	8d 74 26 00          	lea    0x0(%esi,%eiz,1),%esi

00001fb0 <SYSTEM_BACKWARDS_MMX_3>:
    1fb0:	83 f9 48             	cmp    $0x48,%ecx
    1fb3:	0f 8c a7 fe ff ff    	jl     1e60 <SYSTEM_BACKWARDS_IA32_3>
    1fb9:	53                   	push   %ebx
    1fba:	0f 6f 44 08 f8       	movq   -0x8(%eax,%ecx,1),%mm0
    1fbf:	8d 1c 0a             	lea    (%edx,%ecx,1),%ebx
    1fc2:	83 e3 07             	and    $0x7,%ebx
    1fc5:	29 d9                	sub    %ebx,%ecx
    1fc7:	01 cb                	add    %ecx,%ebx
    1fc9:	83 e9 20             	sub    $0x20,%ecx
    1fcc:	0f 6f 0c 08          	movq   (%eax,%ecx,1),%mm1
    1fd0:	0f 6f 54 08 08       	movq   0x8(%eax,%ecx,1),%mm2
    1fd5:	0f 6f 5c 08 10       	movq   0x10(%eax,%ecx,1),%mm3
    1fda:	0f 6f 64 08 18       	movq   0x18(%eax,%ecx,1),%mm4
    1fdf:	0f 7f 64 0a 18       	movq   %mm4,0x18(%edx,%ecx,1)
    1fe4:	0f 7f 5c 0a 10       	movq   %mm3,0x10(%edx,%ecx,1)
    1fe9:	0f 7f 54 0a 08       	movq   %mm2,0x8(%edx,%ecx,1)
    1fee:	0f 7f 0c 0a          	movq   %mm1,(%edx,%ecx,1)
    1ff2:	83 e9 20             	sub    $0x20,%ecx
    1ff5:	7d d5                	jge    1fcc <SYSTEM_BACKWARDS_MMX_3+0x1c>
    1ff7:	0f 7f 44 1a f8       	movq   %mm0,-0x8(%edx,%ebx,1)
    1ffc:	0f 77                	emms   
    1ffe:	83 c1 20             	add    $0x20,%ecx
    2001:	5b                   	pop    %ebx
    2002:	e9 59 fc ff ff       	jmp    1c60 <SYSTEM_SMALLBACKWARDMOVE_3>
    2007:	c3                   	ret    
    2008:	8d b4 26 00 00 00 00 	lea    0x0(%esi,%eiz,1),%esi
    200f:	90                   	nop

00002010 <SYSTEM_ALIGNEDFWDMOVESSE_3$formal$formal$SMALLINT>:
    2010:	56                   	push   %esi
    2011:	89 c6                	mov    %eax,%esi
    2013:	89 c8                	mov    %ecx,%eax
    2015:	83 e0 80             	and    $0xffffff80,%eax
    2018:	01 c6                	add    %eax,%esi
    201a:	01 c2                	add    %eax,%edx
    201c:	c1 e8 03             	shr    $0x3,%eax
    201f:	f7 d8                	neg    %eax
    2021:	3d 00 80 ff ff       	cmp    $0xffff8000,%eax
    2026:	0f 8c b8 00 00 00    	jl     20e4 <SYSTEM_ALIGNEDFWDMOVESSE_3$formal$formal$SMALLINT+0xd4>
    202c:	f7 c6 0f 00 00 00    	test   $0xf,%esi
    2032:	75 58                	jne    208c <SYSTEM_ALIGNEDFWDMOVESSE_3$formal$formal$SMALLINT+0x7c>
    2034:	0f 28 04 c6          	movaps (%esi,%eax,8),%xmm0
    2038:	0f 28 4c c6 10       	movaps 0x10(%esi,%eax,8),%xmm1
    203d:	0f 28 54 c6 20       	movaps 0x20(%esi,%eax,8),%xmm2
    2042:	0f 28 5c c6 30       	movaps 0x30(%esi,%eax,8),%xmm3
    2047:	0f 29 04 c2          	movaps %xmm0,(%edx,%eax,8)
    204b:	0f 29 4c c2 10       	movaps %xmm1,0x10(%edx,%eax,8)
    2050:	0f 29 54 c2 20       	movaps %xmm2,0x20(%edx,%eax,8)
    2055:	0f 29 5c c2 30       	movaps %xmm3,0x30(%edx,%eax,8)
    205a:	0f 28 64 c6 40       	movaps 0x40(%esi,%eax,8),%xmm4
    205f:	0f 28 6c c6 50       	movaps 0x50(%esi,%eax,8),%xmm5
    2064:	0f 28 74 c6 60       	movaps 0x60(%esi,%eax,8),%xmm6
    2069:	0f 28 7c c6 70       	movaps 0x70(%esi,%eax,8),%xmm7
    206e:	0f 29 64 c2 40       	movaps %xmm4,0x40(%edx,%eax,8)
    2073:	0f 29 6c c2 50       	movaps %xmm5,0x50(%edx,%eax,8)
    2078:	0f 29 74 c2 60       	movaps %xmm6,0x60(%edx,%eax,8)
    207d:	0f 29 7c c2 70       	movaps %xmm7,0x70(%edx,%eax,8)
    2082:	83 c0 10             	add    $0x10,%eax
    2085:	78 ad                	js     2034 <SYSTEM_ALIGNEDFWDMOVESSE_3$formal$formal$SMALLINT+0x24>
    2087:	e9 2e 01 00 00       	jmp    21ba <SYSTEM_ALIGNEDFWDMOVESSE_3$formal$formal$SMALLINT+0x1aa>
    208c:	0f 10 04 c6          	movups (%esi,%eax,8),%xmm0
    2090:	0f 10 4c c6 10       	movups 0x10(%esi,%eax,8),%xmm1
    2095:	0f 10 54 c6 20       	movups 0x20(%esi,%eax,8),%xmm2
    209a:	0f 10 5c c6 30       	movups 0x30(%esi,%eax,8),%xmm3
    209f:	0f 29 04 c2          	movaps %xmm0,(%edx,%eax,8)
    20a3:	0f 29 4c c2 10       	movaps %xmm1,0x10(%edx,%eax,8)
    20a8:	0f 29 54 c2 20       	movaps %xmm2,0x20(%edx,%eax,8)
    20ad:	0f 29 5c c2 30       	movaps %xmm3,0x30(%edx,%eax,8)
    20b2:	0f 10 64 c6 40       	movups 0x40(%esi,%eax,8),%xmm4
    20b7:	0f 10 6c c6 50       	movups 0x50(%esi,%eax,8),%xmm5
    20bc:	0f 10 74 c6 60       	movups 0x60(%esi,%eax,8),%xmm6
    20c1:	0f 10 7c c6 70       	movups 0x70(%esi,%eax,8),%xmm7
    20c6:	0f 29 64 c2 40       	movaps %xmm4,0x40(%edx,%eax,8)
    20cb:	0f 29 6c c2 50       	movaps %xmm5,0x50(%edx,%eax,8)
    20d0:	0f 29 74 c2 60       	movaps %xmm6,0x60(%edx,%eax,8)
    20d5:	0f 29 7c c2 70       	movaps %xmm7,0x70(%edx,%eax,8)
    20da:	83 c0 10             	add    $0x10,%eax
    20dd:	78 ad                	js     208c <SYSTEM_ALIGNEDFWDMOVESSE_3$formal$formal$SMALLINT+0x7c>
    20df:	e9 d6 00 00 00       	jmp    21ba <SYSTEM_ALIGNEDFWDMOVESSE_3$formal$formal$SMALLINT+0x1aa>
    20e4:	f7 c6 0f 00 00 00    	test   $0xf,%esi
    20ea:	75 68                	jne    2154 <SYSTEM_ALIGNEDFWDMOVESSE_3$formal$formal$SMALLINT+0x144>
    20ec:	0f 18 84 c6 00 02 00 	prefetchnta 0x200(%esi,%eax,8)
    20f3:	00 
    20f4:	0f 18 84 c6 40 02 00 	prefetchnta 0x240(%esi,%eax,8)
    20fb:	00 
    20fc:	0f 28 04 c6          	movaps (%esi,%eax,8),%xmm0
    2100:	0f 28 4c c6 10       	movaps 0x10(%esi,%eax,8),%xmm1
    2105:	0f 28 54 c6 20       	movaps 0x20(%esi,%eax,8),%xmm2
    210a:	0f 28 5c c6 30       	movaps 0x30(%esi,%eax,8),%xmm3
    210f:	0f 2b 04 c2          	movntps %xmm0,(%edx,%eax,8)
    2113:	0f 2b 4c c2 10       	movntps %xmm1,0x10(%edx,%eax,8)
    2118:	0f 2b 54 c2 20       	movntps %xmm2,0x20(%edx,%eax,8)
    211d:	0f 2b 5c c2 30       	movntps %xmm3,0x30(%edx,%eax,8)
    2122:	0f 28 64 c6 40       	movaps 0x40(%esi,%eax,8),%xmm4
    2127:	0f 28 6c c6 50       	movaps 0x50(%esi,%eax,8),%xmm5
    212c:	0f 28 74 c6 60       	movaps 0x60(%esi,%eax,8),%xmm6
    2131:	0f 28 7c c6 70       	movaps 0x70(%esi,%eax,8),%xmm7
    2136:	0f 2b 64 c2 40       	movntps %xmm4,0x40(%edx,%eax,8)
    213b:	0f 2b 6c c2 50       	movntps %xmm5,0x50(%edx,%eax,8)
    2140:	0f 2b 74 c2 60       	movntps %xmm6,0x60(%edx,%eax,8)
    2145:	0f 2b 7c c2 70       	movntps %xmm7,0x70(%edx,%eax,8)
    214a:	83 c0 10             	add    $0x10,%eax
    214d:	78 9d                	js     20ec <SYSTEM_ALIGNEDFWDMOVESSE_3$formal$formal$SMALLINT+0xdc>
    214f:	0f ae f8             	sfence 
    2152:	eb 66                	jmp    21ba <SYSTEM_ALIGNEDFWDMOVESSE_3$formal$formal$SMALLINT+0x1aa>
    2154:	0f 18 84 c6 00 02 00 	prefetchnta 0x200(%esi,%eax,8)
    215b:	00 
    215c:	0f 18 84 c6 40 02 00 	prefetchnta 0x240(%esi,%eax,8)
    2163:	00 
    2164:	0f 10 04 c6          	movups (%esi,%eax,8),%xmm0
    2168:	0f 10 4c c6 10       	movups 0x10(%esi,%eax,8),%xmm1
    216d:	0f 10 54 c6 20       	movups 0x20(%esi,%eax,8),%xmm2
    2172:	0f 10 5c c6 30       	movups 0x30(%esi,%eax,8),%xmm3
    2177:	0f 2b 04 c2          	movntps %xmm0,(%edx,%eax,8)
    217b:	0f 2b 4c c2 10       	movntps %xmm1,0x10(%edx,%eax,8)
    2180:	0f 2b 54 c2 20       	movntps %xmm2,0x20(%edx,%eax,8)
    2185:	0f 2b 5c c2 30       	movntps %xmm3,0x30(%edx,%eax,8)
    218a:	0f 10 64 c6 40       	movups 0x40(%esi,%eax,8),%xmm4
    218f:	0f 10 6c c6 50       	movups 0x50(%esi,%eax,8),%xmm5
    2194:	0f 10 74 c6 60       	movups 0x60(%esi,%eax,8),%xmm6
    2199:	0f 10 7c c6 70       	movups 0x70(%esi,%eax,8),%xmm7
    219e:	0f 2b 64 c2 40       	movntps %xmm4,0x40(%edx,%eax,8)
    21a3:	0f 2b 6c c2 50       	movntps %xmm5,0x50(%edx,%eax,8)
    21a8:	0f 2b 74 c2 60       	movntps %xmm6,0x60(%edx,%eax,8)
    21ad:	0f 2b 7c c2 70       	movntps %xmm7,0x70(%edx,%eax,8)
    21b2:	83 c0 10             	add    $0x10,%eax
    21b5:	78 9d                	js     2154 <SYSTEM_ALIGNEDFWDMOVESSE_3$formal$formal$SMALLINT+0x144>
    21b7:	0f ae f8             	sfence 
    21ba:	83 e1 7f             	and    $0x7f,%ecx
    21bd:	74 13                	je     21d2 <SYSTEM_ALIGNEDFWDMOVESSE_3$formal$formal$SMALLINT+0x1c2>
    21bf:	01 ce                	add    %ecx,%esi
    21c1:	01 ca                	add    %ecx,%edx
    21c3:	f7 d9                	neg    %ecx
    21c5:	0f 10 04 0e          	movups (%esi,%ecx,1),%xmm0
    21c9:	0f 29 04 0a          	movaps %xmm0,(%edx,%ecx,1)
    21cd:	83 c1 10             	add    $0x10,%ecx
    21d0:	75 f3                	jne    21c5 <SYSTEM_ALIGNEDFWDMOVESSE_3$formal$formal$SMALLINT+0x1b5>
    21d2:	5e                   	pop    %esi
    21d3:	c3                   	ret    
    21d4:	8d b4 26 00 00 00 00 	lea    0x0(%esi,%eiz,1),%esi
    21db:	8d 74 26 00          	lea    0x0(%esi,%eiz,1),%esi
    21df:	90                   	nop

000021e0 <SYSTEM_FORWARDS_SSE_3>:
    21e0:	81 f9 00 08 00 00    	cmp    $0x800,%ecx
    21e6:	7d 5c                	jge    2244 <SYSTEM_FORWARDS_SSE_3+0x64>
    21e8:	83 f9 44             	cmp    $0x44,%ecx
    21eb:	0f 10 00             	movups (%eax),%xmm0
    21ee:	7f 17                	jg     2207 <SYSTEM_FORWARDS_SSE_3+0x27>
    21f0:	0f 10 48 10          	movups 0x10(%eax),%xmm1
    21f4:	0f 11 02             	movups %xmm0,(%edx)
    21f7:	0f 11 4a 10          	movups %xmm1,0x10(%edx)
    21fb:	01 c8                	add    %ecx,%eax
    21fd:	01 ca                	add    %ecx,%edx
    21ff:	83 e9 20             	sub    $0x20,%ecx
    2202:	e9 b9 f8 ff ff       	jmp    1ac0 <SYSTEM_SMALLFORWARDMOVE_3>
    2207:	53                   	push   %ebx
    2208:	89 d3                	mov    %edx,%ebx
    220a:	01 c8                	add    %ecx,%eax
    220c:	01 d1                	add    %edx,%ecx
    220e:	83 c2 0f             	add    $0xf,%edx
    2211:	83 e2 f0             	and    $0xfffffff0,%edx
    2214:	29 d1                	sub    %edx,%ecx
    2216:	01 ca                	add    %ecx,%edx
    2218:	83 e9 20             	sub    $0x20,%ecx
    221b:	f7 d9                	neg    %ecx
    221d:	0f 10 4c 08 e0       	movups -0x20(%eax,%ecx,1),%xmm1
    2222:	0f 10 54 08 f0       	movups -0x10(%eax,%ecx,1),%xmm2
    2227:	0f 29 4c 0a e0       	movaps %xmm1,-0x20(%edx,%ecx,1)
    222c:	0f 29 54 0a f0       	movaps %xmm2,-0x10(%edx,%ecx,1)
    2231:	83 c1 20             	add    $0x20,%ecx
    2234:	7e e7                	jle    221d <SYSTEM_FORWARDS_SSE_3+0x3d>
    2236:	0f 11 03             	movups %xmm0,(%ebx)
    2239:	f7 d9                	neg    %ecx
    223b:	83 c1 20             	add    $0x20,%ecx
    223e:	5b                   	pop    %ebx
    223f:	e9 7c f8 ff ff       	jmp    1ac0 <SYSTEM_SMALLFORWARDMOVE_3>
    2244:	53                   	push   %ebx
    2245:	89 cb                	mov    %ecx,%ebx
    2247:	f7 c2 0f 00 00 00    	test   $0xf,%edx
    224d:	74 17                	je     2266 <SYSTEM_FORWARDS_SSE_3+0x86>
    224f:	89 d1                	mov    %edx,%ecx
    2251:	83 c1 0f             	add    $0xf,%ecx
    2254:	83 e1 f0             	and    $0xfffffff0,%ecx
    2257:	29 d1                	sub    %edx,%ecx
    2259:	01 c8                	add    %ecx,%eax
    225b:	01 ca                	add    %ecx,%edx
    225d:	29 cb                	sub    %ecx,%ebx
    225f:	e8 5c f8 ff ff       	call   1ac0 <SYSTEM_SMALLFORWARDMOVE_3>
    2264:	89 d9                	mov    %ebx,%ecx
    2266:	83 e1 f0             	and    $0xfffffff0,%ecx
    2269:	29 cb                	sub    %ecx,%ebx
    226b:	52                   	push   %edx
    226c:	50                   	push   %eax
    226d:	51                   	push   %ecx
    226e:	e8 9d fd ff ff       	call   2010 <SYSTEM_ALIGNEDFWDMOVESSE_3$formal$formal$SMALLINT>
    2273:	59                   	pop    %ecx
    2274:	58                   	pop    %eax
    2275:	5a                   	pop    %edx
    2276:	01 d9                	add    %ebx,%ecx
    2278:	01 c8                	add    %ecx,%eax
    227a:	01 ca                	add    %ecx,%edx
    227c:	89 d9                	mov    %ebx,%ecx
    227e:	5b                   	pop    %ebx
    227f:	e9 3c f8 ff ff       	jmp    1ac0 <SYSTEM_SMALLFORWARDMOVE_3>
    2284:	c3                   	ret    
    2285:	8d b4 26 00 00 00 00 	lea    0x0(%esi,%eiz,1),%esi
    228c:	8d 74 26 00          	lea    0x0(%esi,%eiz,1),%esi

00002290 <SYSTEM_BACKWARDS_SSE_3>:
    2290:	83 f9 44             	cmp    $0x44,%ecx
    2293:	7f 1a                	jg     22af <SYSTEM_BACKWARDS_SSE_3+0x1f>
    2295:	83 e9 20             	sub    $0x20,%ecx
    2298:	0f 10 0c 08          	movups (%eax,%ecx,1),%xmm1
    229c:	0f 10 54 08 10       	movups 0x10(%eax,%ecx,1),%xmm2
    22a1:	0f 11 0c 0a          	movups %xmm1,(%edx,%ecx,1)
    22a5:	0f 11 54 0a 10       	movups %xmm2,0x10(%edx,%ecx,1)
    22aa:	e9 b1 f9 ff ff       	jmp    1c60 <SYSTEM_SMALLBACKWARDMOVE_3>
    22af:	53                   	push   %ebx
    22b0:	0f 10 44 08 f0       	movups -0x10(%eax,%ecx,1),%xmm0
    22b5:	8d 1c 0a             	lea    (%edx,%ecx,1),%ebx
    22b8:	83 e3 0f             	and    $0xf,%ebx
    22bb:	29 d9                	sub    %ebx,%ecx
    22bd:	01 cb                	add    %ecx,%ebx
    22bf:	83 e9 20             	sub    $0x20,%ecx
    22c2:	0f 10 0c 08          	movups (%eax,%ecx,1),%xmm1
    22c6:	0f 10 54 08 10       	movups 0x10(%eax,%ecx,1),%xmm2
    22cb:	0f 29 0c 0a          	movaps %xmm1,(%edx,%ecx,1)
    22cf:	0f 29 54 0a 10       	movaps %xmm2,0x10(%edx,%ecx,1)
    22d4:	83 e9 20             	sub    $0x20,%ecx
    22d7:	7d e9                	jge    22c2 <SYSTEM_BACKWARDS_SSE_3+0x32>
    22d9:	0f 11 44 1a f0       	movups %xmm0,-0x10(%edx,%ebx,1)
    22de:	83 c1 20             	add    $0x20,%ecx
    22e1:	5b                   	pop    %ebx
    22e2:	e9 79 f9 ff ff       	jmp    1c60 <SYSTEM_SMALLBACKWARDMOVE_3>
    22e7:	c3                   	ret    
    22e8:	8d b4 26 00 00 00 00 	lea    0x0(%esi,%eiz,1),%esi
    22ef:	90                   	nop

000022f0 <FPC_MOVE>:
    22f0:	83 f9 24             	cmp    $0x24,%ecx
    22f3:	77 17                	ja     230c <FPC_MOVE+0x1c>
    22f5:	39 d0                	cmp    %edx,%eax
    22f7:	8d 04 08             	lea    (%eax,%ecx,1),%eax
    22fa:	7e 07                	jle    2303 <FPC_MOVE+0x13>
    22fc:	01 ca                	add    %ecx,%edx
    22fe:	e9 bd f7 ff ff       	jmp    1ac0 <SYSTEM_SMALLFORWARDMOVE_3>
    2303:	74 23                	je     2328 <FPC_MOVE+0x38>
    2305:	29 c8                	sub    %ecx,%eax
    2307:	e9 54 f9 ff ff       	jmp    1c60 <SYSTEM_SMALLBACKWARDMOVE_3>
    230c:	7e 1a                	jle    2328 <FPC_MOVE+0x38>
    230e:	39 d0                	cmp    %edx,%eax
    2310:	7f 0a                	jg     231c <FPC_MOVE+0x2c>
    2312:	74 14                	je     2328 <FPC_MOVE+0x38>
    2314:	50                   	push   %eax
    2315:	01 c8                	add    %ecx,%eax
    2317:	39 d0                	cmp    %edx,%eax
    2319:	58                   	pop    %eax
    231a:	7f 06                	jg     2322 <FPC_MOVE+0x32>
    231c:	ff 25 b4 08 02 00    	jmp    *0x208b4
    2322:	ff 25 b8 08 02 00    	jmp    *0x208b8
    2328:	c3                   	ret    
    2329:	8d b4 26 00 00 00 00 	lea    0x0(%esi,%eiz,1),%esi

00002330 <SYSTEM_SETUP_FASTMOVE>:
    2330:	55                   	push   %ebp
    2331:	89 e5                	mov    %esp,%ebp
    2333:	c9                   	leave  
    2334:	c3                   	ret    
    2335:	8d b4 26 00 00 00 00 	lea    0x0(%esi,%eiz,1),%esi
    233c:	8d 74 26 00          	lea    0x0(%esi,%eiz,1),%esi

00002340 <SYSTEM_FPC_CPUINIT>:
    2340:	55                   	push   %ebp
    2341:	89 e5                	mov    %esp,%ebp
    2343:	c6 05 d8 5d 02 00 00 	movb   $0x0,0x25dd8
    234a:	80 3d db 07 02 00 00 	cmpb   $0x0,0x207db
    2351:	75 02                	jne    2355 <SYSTEM_FPC_CPUINIT+0x15>
    2353:	eb 0b                	jmp    2360 <SYSTEM_FPC_CPUINIT+0x20>
    2355:	e8 96 2a 00 00       	call   4df0 <SYSTEM_GET8087CW$$WORD>
    235a:	66 a3 dc 07 02 00    	mov    %ax,0x207dc
    2360:	c9                   	leave  
    2361:	c3                   	ret    
    2362:	8d b4 26 00 00 00 00 	lea    0x0(%esi,%eiz,1),%esi
    2369:	8d b4 26 00 00 00 00 	lea    0x0(%esi,%eiz,1),%esi

00002370 <SYSTEM_FPC_GETEIPASEBX$$POINTER>:
    2370:	8b 1c 24             	mov    (%esp),%ebx
    2373:	c3                   	ret    
    2374:	8d b4 26 00 00 00 00 	lea    0x0(%esi,%eiz,1),%esi
    237b:	8d 74 26 00          	lea    0x0(%esi,%eiz,1),%esi
    237f:	90                   	nop

00002380 <SYSTEM_FPC_GETEIPASECX$$POINTER>:
    2380:	8b 0c 24             	mov    (%esp),%ecx
    2383:	c3                   	ret    
    2384:	8d b4 26 00 00 00 00 	lea    0x0(%esi,%eiz,1),%esi
    238b:	8d 74 26 00          	lea    0x0(%esi,%eiz,1),%esi
    238f:	90                   	nop

00002390 <SYSTEM_FILLCHAR$formal$LONGINT$BYTE>:
    2390:	83 fa 16             	cmp    $0x16,%edx
    2393:	7f 0b                	jg     23a0 <SYSTEM_FILLCHAR$formal$LONGINT$BYTE+0x10>
    2395:	09 d2                	or     %edx,%edx
    2397:	7e 06                	jle    239f <SYSTEM_FILLCHAR$formal$LONGINT$BYTE+0xf>
    2399:	88 08                	mov    %cl,(%eax)
    239b:	40                   	inc    %eax
    239c:	4a                   	dec    %edx
    239d:	75 fa                	jne    2399 <SYSTEM_FILLCHAR$formal$LONGINT$BYTE+0x9>
    239f:	c3                   	ret    
    23a0:	fc                   	cld    
    23a1:	57                   	push   %edi
    23a2:	89 c7                	mov    %eax,%edi
    23a4:	0f b6 c1             	movzbl %cl,%eax
    23a7:	89 d1                	mov    %edx,%ecx
    23a9:	69 c0 01 01 01 01    	imul   $0x1010101,%eax,%eax
    23af:	c1 e9 02             	shr    $0x2,%ecx
    23b2:	83 e2 03             	and    $0x3,%edx
    23b5:	f3 ab                	rep stos %eax,%es:(%edi)
    23b7:	89 d1                	mov    %edx,%ecx
    23b9:	f3 aa                	rep stos %al,%es:(%edi)
    23bb:	5f                   	pop    %edi
    23bc:	c3                   	ret    
    23bd:	8d 76 00             	lea    0x0(%esi),%esi

000023c0 <SYSTEM_FILLWORD$formal$LONGINT$WORD>:
    23c0:	55                   	push   %ebp
    23c1:	89 e5                	mov    %esp,%ebp
    23c3:	83 ec 04             	sub    $0x4,%esp
    23c6:	89 7d fc             	mov    %edi,-0x4(%ebp)
    23c9:	89 c7                	mov    %eax,%edi
    23cb:	0f b7 c1             	movzwl %cx,%eax
    23ce:	89 d1                	mov    %edx,%ecx
    23d0:	83 f9 00             	cmp    $0x0,%ecx
    23d3:	7e 16                	jle    23eb <SYSTEM_FILLWORD$formal$LONGINT$WORD+0x2b>
    23d5:	89 c2                	mov    %eax,%edx
    23d7:	c1 e0 10             	shl    $0x10,%eax
    23da:	09 d0                	or     %edx,%eax
    23dc:	89 ca                	mov    %ecx,%edx
    23de:	d1 e9                	shr    %ecx
    23e0:	fc                   	cld    
    23e1:	f3 ab                	rep stos %eax,%es:(%edi)
    23e3:	89 d1                	mov    %edx,%ecx
    23e5:	83 e1 01             	and    $0x1,%ecx
    23e8:	f3 66 ab             	rep stos %ax,%es:(%edi)
    23eb:	8b 7d fc             	mov    -0x4(%ebp),%edi
    23ee:	c9                   	leave  
    23ef:	c3                   	ret    

000023f0 <SYSTEM_FILLDWORD$formal$LONGINT$LONGWORD>:
    23f0:	55                   	push   %ebp
    23f1:	89 e5                	mov    %esp,%ebp
    23f3:	83 ec 04             	sub    $0x4,%esp
    23f6:	89 7d fc             	mov    %edi,-0x4(%ebp)
    23f9:	89 c7                	mov    %eax,%edi
    23fb:	89 c8                	mov    %ecx,%eax
    23fd:	89 d1                	mov    %edx,%ecx
    23ff:	83 f9 00             	cmp    $0x0,%ecx
    2402:	7e 03                	jle    2407 <SYSTEM_FILLDWORD$formal$LONGINT$LONGWORD+0x17>
    2404:	fc                   	cld    
    2405:	f3 ab                	rep stos %eax,%es:(%edi)
    2407:	8b 7d fc             	mov    -0x4(%ebp),%edi
    240a:	c9                   	leave  
    240b:	c3                   	ret    
    240c:	8d 74 26 00          	lea    0x0(%esi,%eiz,1),%esi

00002410 <SYSTEM_INDEXBYTE$formal$LONGINT$BYTE$$LONGINT>:
    2410:	55                   	push   %ebp
    2411:	89 e5                	mov    %esp,%ebp
    2413:	83 ec 0c             	sub    $0xc,%esp
    2416:	89 7d f8             	mov    %edi,-0x8(%ebp)
    2419:	89 5d f4             	mov    %ebx,-0xc(%ebp)
    241c:	89 c7                	mov    %eax,%edi
    241e:	88 cb                	mov    %cl,%bl
    2420:	89 d1                	mov    %edx,%ecx
    2422:	31 c0                	xor    %eax,%eax
    2424:	85 c9                	test   %ecx,%ecx
    2426:	74 10                	je     2438 <SYSTEM_INDEXBYTE$formal$LONGINT$BYTE$$LONGINT+0x28>
    2428:	fc                   	cld    
    2429:	89 ca                	mov    %ecx,%edx
    242b:	88 d8                	mov    %bl,%al
    242d:	f2 ae                	repnz scas %es:(%edi),%al
    242f:	75 07                	jne    2438 <SYSTEM_INDEXBYTE$formal$LONGINT$BYTE$$LONGINT+0x28>
    2431:	41                   	inc    %ecx
    2432:	29 ca                	sub    %ecx,%edx
    2434:	89 d0                	mov    %edx,%eax
    2436:	eb 05                	jmp    243d <SYSTEM_INDEXBYTE$formal$LONGINT$BYTE$$LONGINT+0x2d>
    2438:	b8 ff ff ff ff       	mov    $0xffffffff,%eax
    243d:	8b 7d f8             	mov    -0x8(%ebp),%edi
    2440:	8b 5d f4             	mov    -0xc(%ebp),%ebx
    2443:	c9                   	leave  
    2444:	c3                   	ret    
    2445:	8d b4 26 00 00 00 00 	lea    0x0(%esi,%eiz,1),%esi
    244c:	8d 74 26 00          	lea    0x0(%esi,%eiz,1),%esi

00002450 <SYSTEM_INDEXWORD$formal$LONGINT$WORD$$LONGINT>:
    2450:	55                   	push   %ebp
    2451:	89 e5                	mov    %esp,%ebp
    2453:	83 ec 0c             	sub    $0xc,%esp
    2456:	89 7d f8             	mov    %edi,-0x8(%ebp)
    2459:	89 5d f4             	mov    %ebx,-0xc(%ebp)
    245c:	89 c7                	mov    %eax,%edi
    245e:	66 89 cb             	mov    %cx,%bx
    2461:	89 d1                	mov    %edx,%ecx
    2463:	31 c0                	xor    %eax,%eax
    2465:	85 c9                	test   %ecx,%ecx
    2467:	74 12                	je     247b <SYSTEM_INDEXWORD$formal$LONGINT$WORD$$LONGINT+0x2b>
    2469:	fc                   	cld    
    246a:	89 ca                	mov    %ecx,%edx
    246c:	66 89 d8             	mov    %bx,%ax
    246f:	f2 66 af             	repnz scas %es:(%edi),%ax
    2472:	75 07                	jne    247b <SYSTEM_INDEXWORD$formal$LONGINT$WORD$$LONGINT+0x2b>
    2474:	41                   	inc    %ecx
    2475:	29 ca                	sub    %ecx,%edx
    2477:	89 d0                	mov    %edx,%eax
    2479:	eb 05                	jmp    2480 <SYSTEM_INDEXWORD$formal$LONGINT$WORD$$LONGINT+0x30>
    247b:	b8 ff ff ff ff       	mov    $0xffffffff,%eax
    2480:	8b 7d f8             	mov    -0x8(%ebp),%edi
    2483:	8b 5d f4             	mov    -0xc(%ebp),%ebx
    2486:	c9                   	leave  
    2487:	c3                   	ret    
    2488:	8d b4 26 00 00 00 00 	lea    0x0(%esi,%eiz,1),%esi
    248f:	90                   	nop

00002490 <SYSTEM_INDEXDWORD$formal$LONGINT$LONGWORD$$LONGINT>:
    2490:	55                   	push   %ebp
    2491:	89 e5                	mov    %esp,%ebp
    2493:	83 ec 0c             	sub    $0xc,%esp
    2496:	89 7d f8             	mov    %edi,-0x8(%ebp)
    2499:	89 5d f4             	mov    %ebx,-0xc(%ebp)
    249c:	89 c7                	mov    %eax,%edi
    249e:	89 cb                	mov    %ecx,%ebx
    24a0:	89 d1                	mov    %edx,%ecx
    24a2:	31 c0                	xor    %eax,%eax
    24a4:	85 c9                	test   %ecx,%ecx
    24a6:	74 10                	je     24b8 <SYSTEM_INDEXDWORD$formal$LONGINT$LONGWORD$$LONGINT+0x28>
    24a8:	fc                   	cld    
    24a9:	89 ca                	mov    %ecx,%edx
    24ab:	89 d8                	mov    %ebx,%eax
    24ad:	f2 af                	repnz scas %es:(%edi),%eax
    24af:	75 07                	jne    24b8 <SYSTEM_INDEXDWORD$formal$LONGINT$LONGWORD$$LONGINT+0x28>
    24b1:	41                   	inc    %ecx
    24b2:	29 ca                	sub    %ecx,%edx
    24b4:	89 d0                	mov    %edx,%eax
    24b6:	eb 05                	jmp    24bd <SYSTEM_INDEXDWORD$formal$LONGINT$LONGWORD$$LONGINT+0x2d>
    24b8:	b8 ff ff ff ff       	mov    $0xffffffff,%eax
    24bd:	8b 7d f8             	mov    -0x8(%ebp),%edi
    24c0:	8b 5d f4             	mov    -0xc(%ebp),%ebx
    24c3:	c9                   	leave  
    24c4:	c3                   	ret    
    24c5:	8d b4 26 00 00 00 00 	lea    0x0(%esi,%eiz,1),%esi
    24cc:	8d 74 26 00          	lea    0x0(%esi,%eiz,1),%esi

000024d0 <SYSTEM_COMPAREBYTE$formal$formal$LONGINT$$LONGINT>:
    24d0:	83 f9 39             	cmp    $0x39,%ecx
    24d3:	7f 25                	jg     24fa <SYSTEM_COMPAREBYTE$formal$formal$LONGINT$$LONGINT+0x2a>
    24d5:	85 c9                	test   %ecx,%ecx
    24d7:	74 1b                	je     24f4 <SYSTEM_COMPAREBYTE$formal$formal$LONGINT$$LONGINT+0x24>
    24d9:	53                   	push   %ebx
    24da:	8a 18                	mov    (%eax),%bl
    24dc:	3a 1a                	cmp    (%edx),%bl
    24de:	8d 40 01             	lea    0x1(%eax),%eax
    24e1:	8d 52 01             	lea    0x1(%edx),%edx
    24e4:	75 03                	jne    24e9 <SYSTEM_COMPAREBYTE$formal$formal$LONGINT$$LONGINT+0x19>
    24e6:	49                   	dec    %ecx
    24e7:	75 f1                	jne    24da <SYSTEM_COMPAREBYTE$formal$formal$LONGINT$$LONGINT+0xa>
    24e9:	0f b6 4a ff          	movzbl -0x1(%edx),%ecx
    24ed:	0f b6 c3             	movzbl %bl,%eax
    24f0:	29 c8                	sub    %ecx,%eax
    24f2:	5b                   	pop    %ebx
    24f3:	c3                   	ret    
    24f4:	b8 00 00 00 00       	mov    $0x0,%eax
    24f9:	c3                   	ret    
    24fa:	56                   	push   %esi
    24fb:	57                   	push   %edi
    24fc:	fc                   	cld    
    24fd:	89 c7                	mov    %eax,%edi
    24ff:	89 d6                	mov    %edx,%esi
    2501:	89 c8                	mov    %ecx,%eax
    2503:	89 f9                	mov    %edi,%ecx
    2505:	f7 d9                	neg    %ecx
    2507:	83 e1 03             	and    $0x3,%ecx
    250a:	29 c8                	sub    %ecx,%eax
    250c:	09 c9                	or     %ecx,%ecx
    250e:	f3 a6                	repz cmpsb %es:(%edi),%ds:(%esi)
    2510:	75 1d                	jne    252f <SYSTEM_COMPAREBYTE$formal$formal$LONGINT$$LONGINT+0x5f>
    2512:	89 c1                	mov    %eax,%ecx
    2514:	83 e0 03             	and    $0x3,%eax
    2517:	c1 e9 02             	shr    $0x2,%ecx
    251a:	09 c9                	or     %ecx,%ecx
    251c:	f3 a7                	repz cmpsl %es:(%edi),%ds:(%esi)
    251e:	74 09                	je     2529 <SYSTEM_COMPAREBYTE$formal$formal$LONGINT$$LONGINT+0x59>
    2520:	b8 04 00 00 00       	mov    $0x4,%eax
    2525:	29 c6                	sub    %eax,%esi
    2527:	29 c7                	sub    %eax,%edi
    2529:	89 c1                	mov    %eax,%ecx
    252b:	09 c0                	or     %eax,%eax
    252d:	f3 a6                	repz cmpsb %es:(%edi),%ds:(%esi)
    252f:	0f b6 4e ff          	movzbl -0x1(%esi),%ecx
    2533:	0f b6 47 ff          	movzbl -0x1(%edi),%eax
    2537:	29 c8                	sub    %ecx,%eax
    2539:	5f                   	pop    %edi
    253a:	5e                   	pop    %esi
    253b:	c3                   	ret    
    253c:	8d 74 26 00          	lea    0x0(%esi,%eiz,1),%esi

00002540 <SYSTEM_COMPAREWORD$formal$formal$LONGINT$$LONGINT>:
    2540:	83 f9 20             	cmp    $0x20,%ecx
    2543:	7f 27                	jg     256c <SYSTEM_COMPAREWORD$formal$formal$LONGINT$$LONGINT+0x2c>
    2545:	85 c9                	test   %ecx,%ecx
    2547:	74 1d                	je     2566 <SYSTEM_COMPAREWORD$formal$formal$LONGINT$$LONGINT+0x26>
    2549:	53                   	push   %ebx
    254a:	66 8b 18             	mov    (%eax),%bx
    254d:	66 3b 1a             	cmp    (%edx),%bx
    2550:	8d 40 02             	lea    0x2(%eax),%eax
    2553:	8d 52 02             	lea    0x2(%edx),%edx
    2556:	75 03                	jne    255b <SYSTEM_COMPAREWORD$formal$formal$LONGINT$$LONGINT+0x1b>
    2558:	49                   	dec    %ecx
    2559:	75 ef                	jne    254a <SYSTEM_COMPAREWORD$formal$formal$LONGINT$$LONGINT+0xa>
    255b:	0f b7 4a fe          	movzwl -0x2(%edx),%ecx
    255f:	0f b7 c3             	movzwl %bx,%eax
    2562:	29 c8                	sub    %ecx,%eax
    2564:	5b                   	pop    %ebx
    2565:	c3                   	ret    
    2566:	b8 00 00 00 00       	mov    $0x0,%eax
    256b:	c3                   	ret    
    256c:	56                   	push   %esi
    256d:	57                   	push   %edi
    256e:	53                   	push   %ebx
    256f:	fc                   	cld    
    2570:	89 c7                	mov    %eax,%edi
    2572:	89 d6                	mov    %edx,%esi
    2574:	89 c8                	mov    %ecx,%eax
    2576:	8b 1f                	mov    (%edi),%ebx
    2578:	3b 1e                	cmp    (%esi),%ebx
    257a:	75 32                	jne    25ae <SYSTEM_COMPAREWORD$formal$formal$LONGINT$$LONGINT+0x6e>
    257c:	d1 e0                	shl    %eax
    257e:	89 fa                	mov    %edi,%edx
    2580:	f7 da                	neg    %edx
    2582:	83 e2 03             	and    $0x3,%edx
    2585:	01 d6                	add    %edx,%esi
    2587:	01 d7                	add    %edx,%edi
    2589:	29 d0                	sub    %edx,%eax
    258b:	89 c1                	mov    %eax,%ecx
    258d:	83 e0 03             	and    $0x3,%eax
    2590:	83 e2 01             	and    $0x1,%edx
    2593:	c1 e9 02             	shr    $0x2,%ecx
    2596:	09 c9                	or     %ecx,%ecx
    2598:	f3 a7                	repz cmpsl %es:(%edi),%ds:(%esi)
    259a:	74 0a                	je     25a6 <SYSTEM_COMPAREWORD$formal$formal$LONGINT$$LONGINT+0x66>
    259c:	b8 04 00 00 00       	mov    $0x4,%eax
    25a1:	29 c6                	sub    %eax,%esi
    25a3:	29 c7                	sub    %eax,%edi
    25a5:	40                   	inc    %eax
    25a6:	29 d6                	sub    %edx,%esi
    25a8:	29 d7                	sub    %edx,%edi
    25aa:	01 d0                	add    %edx,%eax
    25ac:	d1 e8                	shr    %eax
    25ae:	89 c1                	mov    %eax,%ecx
    25b0:	09 c0                	or     %eax,%eax
    25b2:	f3 66 a7             	repz cmpsw %es:(%edi),%ds:(%esi)
    25b5:	0f b7 4e fe          	movzwl -0x2(%esi),%ecx
    25b9:	0f b7 47 fe          	movzwl -0x2(%edi),%eax
    25bd:	29 c8                	sub    %ecx,%eax
    25bf:	5b                   	pop    %ebx
    25c0:	5f                   	pop    %edi
    25c1:	5e                   	pop    %esi
    25c2:	c3                   	ret    
    25c3:	8d b4 26 00 00 00 00 	lea    0x0(%esi,%eiz,1),%esi
    25ca:	8d b6 00 00 00 00    	lea    0x0(%esi),%esi

000025d0 <SYSTEM_COMPAREDWORD$formal$formal$LONGINT$$LONGINT>:
    25d0:	83 f9 20             	cmp    $0x20,%ecx
    25d3:	7f 30                	jg     2605 <SYSTEM_COMPAREDWORD$formal$formal$LONGINT$$LONGINT+0x35>
    25d5:	85 c9                	test   %ecx,%ecx
    25d7:	74 26                	je     25ff <SYSTEM_COMPAREDWORD$formal$formal$LONGINT$$LONGINT+0x2f>
    25d9:	53                   	push   %ebx
    25da:	8b 18                	mov    (%eax),%ebx
    25dc:	3b 1a                	cmp    (%edx),%ebx
    25de:	8d 40 04             	lea    0x4(%eax),%eax
    25e1:	8d 52 04             	lea    0x4(%edx),%edx
    25e4:	75 03                	jne    25e9 <SYSTEM_COMPAREDWORD$formal$formal$LONGINT$$LONGINT+0x19>
    25e6:	49                   	dec    %ecx
    25e7:	75 f1                	jne    25da <SYSTEM_COMPAREDWORD$formal$formal$LONGINT$$LONGINT+0xa>
    25e9:	31 c0                	xor    %eax,%eax
    25eb:	8b 52 fc             	mov    -0x4(%edx),%edx
    25ee:	29 d3                	sub    %edx,%ebx
    25f0:	0f 92 c2             	setb   %dl
    25f3:	0f 97 c1             	seta   %cl
    25f6:	00 c8                	add    %cl,%al
    25f8:	28 d0                	sub    %dl,%al
    25fa:	0f be c0             	movsbl %al,%eax
    25fd:	5b                   	pop    %ebx
    25fe:	c3                   	ret    
    25ff:	b8 00 00 00 00       	mov    $0x0,%eax
    2604:	c3                   	ret    
    2605:	56                   	push   %esi
    2606:	57                   	push   %edi
    2607:	fc                   	cld    
    2608:	89 c7                	mov    %eax,%edi
    260a:	89 d6                	mov    %edx,%esi
    260c:	31 c0                	xor    %eax,%eax
    260e:	f3 a7                	repz cmpsl %es:(%edi),%ds:(%esi)
    2610:	8b 7f fc             	mov    -0x4(%edi),%edi
    2613:	2b 7e fc             	sub    -0x4(%esi),%edi
    2616:	0f 92 c2             	setb   %dl
    2619:	0f 97 c1             	seta   %cl
    261c:	00 c8                	add    %cl,%al
    261e:	28 d0                	sub    %dl,%al
    2620:	0f be c0             	movsbl %al,%eax
    2623:	5f                   	pop    %edi
    2624:	5e                   	pop    %esi
    2625:	c3                   	ret    
    2626:	8d b4 26 00 00 00 00 	lea    0x0(%esi,%eiz,1),%esi
    262d:	8d 76 00             	lea    0x0(%esi),%esi

00002630 <SYSTEM_INDEXCHAR0$formal$LONGINT$CHAR$$LONGINT>:
    2630:	55                   	push   %ebp
    2631:	89 e5                	mov    %esp,%ebp
    2633:	83 ec 0c             	sub    $0xc,%esp
    2636:	89 75 f8             	mov    %esi,-0x8(%ebp)
    2639:	89 5d f4             	mov    %ebx,-0xc(%ebp)
    263c:	89 c6                	mov    %eax,%esi
    263e:	0f b6 d9             	movzbl %cl,%ebx
    2641:	85 d2                	test   %edx,%edx
    2643:	74 1c                	je     2661 <SYSTEM_INDEXCHAR0$formal$LONGINT$CHAR$$LONGINT+0x31>
    2645:	31 c9                	xor    %ecx,%ecx
    2647:	31 c0                	xor    %eax,%eax
    2649:	8d 76 00             	lea    0x0(%esi),%esi
    264c:	8a 06                	mov    (%esi),%al
    264e:	38 c3                	cmp    %al,%bl
    2650:	74 0f                	je     2661 <SYSTEM_INDEXCHAR0$formal$LONGINT$CHAR$$LONGINT+0x31>
    2652:	41                   	inc    %ecx
    2653:	46                   	inc    %esi
    2654:	39 d1                	cmp    %edx,%ecx
    2656:	74 04                	je     265c <SYSTEM_INDEXCHAR0$formal$LONGINT$CHAR$$LONGINT+0x2c>
    2658:	85 c0                	test   %eax,%eax
    265a:	75 f0                	jne    264c <SYSTEM_INDEXCHAR0$formal$LONGINT$CHAR$$LONGINT+0x1c>
    265c:	b9 ff ff ff ff       	mov    $0xffffffff,%ecx
    2661:	89 c8                	mov    %ecx,%eax
    2663:	8b 75 f8             	mov    -0x8(%ebp),%esi
    2666:	8b 5d f4             	mov    -0xc(%ebp),%ebx
    2669:	c9                   	leave  
    266a:	c3                   	ret    
    266b:	8d 74 26 00          	lea    0x0(%esi,%eiz,1),%esi
    266f:	90                   	nop

00002670 <FPC_SHORTSTR_TO_SHORTSTR>:
    2670:	55                   	push   %ebp
    2671:	89 e5                	mov    %esp,%ebp
    2673:	83 ec 08             	sub    $0x8,%esp
    2676:	89 7d f8             	mov    %edi,-0x8(%ebp)
    2679:	89 75 fc             	mov    %esi,-0x4(%ebp)
    267c:	fc                   	cld    
    267d:	89 c7                	mov    %eax,%edi
    267f:	89 ce                	mov    %ecx,%esi
    2681:	89 d1                	mov    %edx,%ecx
    2683:	31 c0                	xor    %eax,%eax
    2685:	ac                   	lods   %ds:(%esi),%al
    2686:	39 c8                	cmp    %ecx,%eax
    2688:	76 02                	jbe    268c <FPC_SHORTSTR_TO_SHORTSTR+0x1c>
    268a:	89 c8                	mov    %ecx,%eax
    268c:	aa                   	stos   %al,%es:(%edi)
    268d:	83 f8 07             	cmp    $0x7,%eax
    2690:	7c 15                	jl     26a7 <FPC_SHORTSTR_TO_SHORTSTR+0x37>
    2692:	89 f9                	mov    %edi,%ecx
    2694:	f7 d9                	neg    %ecx
    2696:	83 e1 03             	and    $0x3,%ecx
    2699:	29 c8                	sub    %ecx,%eax
    269b:	f3 a4                	rep movsb %ds:(%esi),%es:(%edi)
    269d:	89 c1                	mov    %eax,%ecx
    269f:	83 e0 03             	and    $0x3,%eax
    26a2:	c1 e9 02             	shr    $0x2,%ecx
    26a5:	f3 a5                	rep movsl %ds:(%esi),%es:(%edi)
    26a7:	89 c1                	mov    %eax,%ecx
    26a9:	f3 a4                	rep movsb %ds:(%esi),%es:(%edi)
    26ab:	8b 7d f8             	mov    -0x8(%ebp),%edi
    26ae:	8b 75 fc             	mov    -0x4(%ebp),%esi
    26b1:	c9                   	leave  
    26b2:	c3                   	ret    
    26b3:	8d b4 26 00 00 00 00 	lea    0x0(%esi,%eiz,1),%esi
    26ba:	8d b6 00 00 00 00    	lea    0x0(%esi),%esi

000026c0 <FPC_SHORTSTR_ASSIGN>:
    26c0:	55                   	push   %ebp
    26c1:	89 e5                	mov    %esp,%ebp
    26c3:	83 ec 14             	sub    $0x14,%esp
    26c6:	89 75 ec             	mov    %esi,-0x14(%ebp)
    26c9:	89 7d f0             	mov    %edi,-0x10(%ebp)
    26cc:	89 45 fc             	mov    %eax,-0x4(%ebp)
    26cf:	89 55 f8             	mov    %edx,-0x8(%ebp)
    26d2:	89 4d f4             	mov    %ecx,-0xc(%ebp)
    26d5:	50                   	push   %eax
    26d6:	51                   	push   %ecx
    26d7:	fc                   	cld    
    26d8:	8b 7d f4             	mov    -0xc(%ebp),%edi
    26db:	8b 75 f8             	mov    -0x8(%ebp),%esi
    26de:	31 c0                	xor    %eax,%eax
    26e0:	8b 4d fc             	mov    -0x4(%ebp),%ecx
    26e3:	ac                   	lods   %ds:(%esi),%al
    26e4:	39 c8                	cmp    %ecx,%eax
    26e6:	76 02                	jbe    26ea <FPC_SHORTSTR_ASSIGN+0x2a>
    26e8:	89 c8                	mov    %ecx,%eax
    26ea:	aa                   	stos   %al,%es:(%edi)
    26eb:	83 f8 07             	cmp    $0x7,%eax
    26ee:	7c 15                	jl     2705 <FPC_SHORTSTR_ASSIGN+0x45>
    26f0:	89 f9                	mov    %edi,%ecx
    26f2:	f7 d9                	neg    %ecx
    26f4:	83 e1 03             	and    $0x3,%ecx
    26f7:	29 c8                	sub    %ecx,%eax
    26f9:	f3 a4                	rep movsb %ds:(%esi),%es:(%edi)
    26fb:	89 c1                	mov    %eax,%ecx
    26fd:	83 e0 03             	and    $0x3,%eax
    2700:	c1 e9 02             	shr    $0x2,%ecx
    2703:	f3 a5                	rep movsl %ds:(%esi),%es:(%edi)
    2705:	89 c1                	mov    %eax,%ecx
    2707:	f3 a4                	rep movsb %ds:(%esi),%es:(%edi)
    2709:	59                   	pop    %ecx
    270a:	58                   	pop    %eax
    270b:	8b 75 ec             	mov    -0x14(%ebp),%esi
    270e:	8b 7d f0             	mov    -0x10(%ebp),%edi
    2711:	c9                   	leave  
    2712:	c3                   	ret    
    2713:	8d b4 26 00 00 00 00 	lea    0x0(%esi,%eiz,1),%esi
    271a:	8d b6 00 00 00 00    	lea    0x0(%esi),%esi

00002720 <FPC_SHORTSTR_COMPARE>:
    2720:	55                   	push   %ebp
    2721:	89 e5                	mov    %esp,%ebp
    2723:	83 ec 10             	sub    $0x10,%esp
    2726:	89 7d f4             	mov    %edi,-0xc(%ebp)
    2729:	89 75 f8             	mov    %esi,-0x8(%ebp)
    272c:	89 5d f0             	mov    %ebx,-0x10(%ebp)
    272f:	fc                   	cld    
    2730:	89 d6                	mov    %edx,%esi
    2732:	89 c7                	mov    %eax,%edi
    2734:	0f b6 06             	movzbl (%esi),%eax
    2737:	0f b6 1f             	movzbl (%edi),%ebx
    273a:	89 c2                	mov    %eax,%edx
    273c:	46                   	inc    %esi
    273d:	47                   	inc    %edi
    273e:	39 d8                	cmp    %ebx,%eax
    2740:	76 02                	jbe    2744 <FPC_SHORTSTR_COMPARE+0x24>
    2742:	89 d8                	mov    %ebx,%eax
    2744:	83 f8 07             	cmp    $0x7,%eax
    2747:	7c 26                	jl     276f <FPC_SHORTSTR_COMPARE+0x4f>
    2749:	89 f9                	mov    %edi,%ecx
    274b:	f7 d9                	neg    %ecx
    274d:	83 e1 03             	and    $0x3,%ecx
    2750:	29 c8                	sub    %ecx,%eax
    2752:	09 c9                	or     %ecx,%ecx
    2754:	f3 a6                	repz cmpsb %es:(%edi),%ds:(%esi)
    2756:	75 1f                	jne    2777 <FPC_SHORTSTR_COMPARE+0x57>
    2758:	89 c1                	mov    %eax,%ecx
    275a:	83 e0 03             	and    $0x3,%eax
    275d:	c1 e9 02             	shr    $0x2,%ecx
    2760:	09 c9                	or     %ecx,%ecx
    2762:	f3 a7                	repz cmpsl %es:(%edi),%ds:(%esi)
    2764:	74 09                	je     276f <FPC_SHORTSTR_COMPARE+0x4f>
    2766:	b8 04 00 00 00       	mov    $0x4,%eax
    276b:	29 c6                	sub    %eax,%esi
    276d:	29 c7                	sub    %eax,%edi
    276f:	89 c1                	mov    %eax,%ecx
    2771:	09 c0                	or     %eax,%eax
    2773:	f3 a6                	repz cmpsb %es:(%edi),%ds:(%esi)
    2775:	74 08                	je     277f <FPC_SHORTSTR_COMPARE+0x5f>
    2777:	0f b6 56 ff          	movzbl -0x1(%esi),%edx
    277b:	0f b6 5f ff          	movzbl -0x1(%edi),%ebx
    277f:	89 d8                	mov    %ebx,%eax
    2781:	29 d0                	sub    %edx,%eax
    2783:	8b 7d f4             	mov    -0xc(%ebp),%edi
    2786:	8b 75 f8             	mov    -0x8(%ebp),%esi
    2789:	8b 5d f0             	mov    -0x10(%ebp),%ebx
    278c:	c9                   	leave  
    278d:	c3                   	ret    
    278e:	89 f6                	mov    %esi,%esi

00002790 <FPC_PCHAR_TO_SHORTSTR>:
    2790:	55                   	push   %ebp
    2791:	89 e5                	mov    %esp,%ebp
    2793:	83 ec 10             	sub    $0x10,%esp
    2796:	89 5d f8             	mov    %ebx,-0x8(%ebp)
    2799:	89 75 f4             	mov    %esi,-0xc(%ebp)
    279c:	89 7d f0             	mov    %edi,-0x10(%ebp)
    279f:	89 ce                	mov    %ecx,%esi
    27a1:	89 c7                	mov    %eax,%edi
    27a3:	89 7d fc             	mov    %edi,-0x4(%ebp)
    27a6:	b9 01 00 00 00       	mov    $0x1,%ecx
    27ab:	85 f6                	test   %esi,%esi
    27ad:	89 f0                	mov    %esi,%eax
    27af:	0f 84 81 00 00 00    	je     2836 <FPC_PCHAR_TO_SHORTSTR+0xa6>
    27b5:	8d 56 03             	lea    0x3(%esi),%edx
    27b8:	83 e2 fc             	and    $0xfffffffc,%edx
    27bb:	47                   	inc    %edi
    27bc:	29 f2                	sub    %esi,%edx
    27be:	74 20                	je     27e0 <FPC_PCHAR_TO_SHORTSTR+0x50>
    27c0:	8a 06                	mov    (%esi),%al
    27c2:	46                   	inc    %esi
    27c3:	84 c0                	test   %al,%al
    27c5:	0f 84 6b 00 00 00    	je     2836 <FPC_PCHAR_TO_SHORTSTR+0xa6>
    27cb:	47                   	inc    %edi
    27cc:	fe c1                	inc    %cl
    27ce:	fe ca                	dec    %dl
    27d0:	88 47 ff             	mov    %al,-0x1(%edi)
    27d3:	75 eb                	jne    27c0 <FPC_PCHAR_TO_SHORTSTR+0x30>
    27d5:	8d b4 26 00 00 00 00 	lea    0x0(%esi,%eiz,1),%esi
    27dc:	8d 74 26 00          	lea    0x0(%esi,%eiz,1),%esi
    27e0:	8b 1e                	mov    (%esi),%ebx
    27e2:	83 c7 04             	add    $0x4,%edi
    27e5:	8d 83 ff fe fe fe    	lea    -0x1010101(%ebx),%eax
    27eb:	89 da                	mov    %ebx,%edx
    27ed:	83 c6 04             	add    $0x4,%esi
    27f0:	f7 d2                	not    %edx
    27f2:	21 d0                	and    %edx,%eax
    27f4:	83 c1 04             	add    $0x4,%ecx
    27f7:	25 80 80 80 80       	and    $0x80808080,%eax
    27fc:	89 5f fc             	mov    %ebx,-0x4(%edi)
    27ff:	75 0a                	jne    280b <FPC_PCHAR_TO_SHORTSTR+0x7b>
    2801:	81 f9 fc 00 00 00    	cmp    $0xfc,%ecx
    2807:	77 19                	ja     2822 <FPC_PCHAR_TO_SHORTSTR+0x92>
    2809:	eb d5                	jmp    27e0 <FPC_PCHAR_TO_SHORTSTR+0x50>
    280b:	83 e9 04             	sub    $0x4,%ecx
    280e:	c1 e8 08             	shr    $0x8,%eax
    2811:	72 23                	jb     2836 <FPC_PCHAR_TO_SHORTSTR+0xa6>
    2813:	41                   	inc    %ecx
    2814:	c1 e8 08             	shr    $0x8,%eax
    2817:	72 1d                	jb     2836 <FPC_PCHAR_TO_SHORTSTR+0xa6>
    2819:	41                   	inc    %ecx
    281a:	c1 e8 08             	shr    $0x8,%eax
    281d:	72 17                	jb     2836 <FPC_PCHAR_TO_SHORTSTR+0xa6>
    281f:	41                   	inc    %ecx
    2820:	eb 14                	jmp    2836 <FPC_PCHAR_TO_SHORTSTR+0xa6>
    2822:	84 c9                	test   %cl,%cl
    2824:	74 10                	je     2836 <FPC_PCHAR_TO_SHORTSTR+0xa6>
    2826:	8b 06                	mov    (%esi),%eax
    2828:	84 c0                	test   %al,%al
    282a:	74 0a                	je     2836 <FPC_PCHAR_TO_SHORTSTR+0xa6>
    282c:	88 07                	mov    %al,(%edi)
    282e:	c1 e8 08             	shr    $0x8,%eax
    2831:	47                   	inc    %edi
    2832:	fe c1                	inc    %cl
    2834:	75 f2                	jne    2828 <FPC_PCHAR_TO_SHORTSTR+0x98>
    2836:	8b 7d fc             	mov    -0x4(%ebp),%edi
    2839:	80 c1 ff             	add    $0xff,%cl
    283c:	88 0f                	mov    %cl,(%edi)
    283e:	8b 75 f4             	mov    -0xc(%ebp),%esi
    2841:	8b 7d f0             	mov    -0x10(%ebp),%edi
    2844:	8b 5d f8             	mov    -0x8(%ebp),%ebx
    2847:	c9                   	leave  
    2848:	c3                   	ret    
    2849:	8d b4 26 00 00 00 00 	lea    0x0(%esi,%eiz,1),%esi

00002850 <FPC_PCHAR_LENGTH>:
    2850:	55                   	push   %ebp
    2851:	89 e5                	mov    %esp,%ebp
    2853:	83 ec 08             	sub    $0x8,%esp
    2856:	89 7d f8             	mov    %edi,-0x8(%ebp)
    2859:	89 c7                	mov    %eax,%edi
    285b:	b9 ff ff ff ff       	mov    $0xffffffff,%ecx
    2860:	31 c0                	xor    %eax,%eax
    2862:	85 ff                	test   %edi,%edi
    2864:	74 0d                	je     2873 <FPC_PCHAR_LENGTH+0x23>
    2866:	fc                   	cld    
    2867:	f2 ae                	repnz scas %es:(%edi),%al
    2869:	b8 fe ff ff ff       	mov    $0xfffffffe,%eax
    286e:	29 c8                	sub    %ecx,%eax
    2870:	8b 7d f8             	mov    -0x8(%ebp),%edi
    2873:	c9                   	leave  
    2874:	c3                   	ret    
    2875:	8d b4 26 00 00 00 00 	lea    0x0(%esi,%eiz,1),%esi
    287c:	8d 74 26 00          	lea    0x0(%esi,%eiz,1),%esi

00002880 <SYSTEM_GET_CALLER_ADDR$POINTER$$POINTER>:
    2880:	09 c0                	or     %eax,%eax
    2882:	74 03                	je     2887 <SYSTEM_GET_CALLER_ADDR$POINTER$$POINTER+0x7>
    2884:	8b 40 04             	mov    0x4(%eax),%eax
    2887:	c3                   	ret    
    2888:	8d b4 26 00 00 00 00 	lea    0x0(%esi,%eiz,1),%esi
    288f:	90                   	nop

00002890 <SYSTEM_GET_CALLER_FRAME$POINTER$$POINTER>:
    2890:	09 c0                	or     %eax,%eax
    2892:	74 02                	je     2896 <SYSTEM_GET_CALLER_FRAME$POINTER$$POINTER+0x6>
    2894:	8b 00                	mov    (%eax),%eax
    2896:	c3                   	ret    
    2897:	8d b4 26 00 00 00 00 	lea    0x0(%esi,%eiz,1),%esi
    289e:	89 f6                	mov    %esi,%esi

000028a0 <SYSTEM_SPTR$$POINTER>:
    28a0:	89 e0                	mov    %esp,%eax
    28a2:	c3                   	ret    
    28a3:	8d b4 26 00 00 00 00 	lea    0x0(%esi,%eiz,1),%esi
    28aa:	8d b6 00 00 00 00    	lea    0x0(%esi),%esi

000028b0 <SYSTEM_CPUDECLOCKED$LONGINT$$BOOLEAN>:
    28b0:	f0 ff 08             	lock decl (%eax)
    28b3:	0f 94 c0             	sete   %al
    28b6:	c3                   	ret    
    28b7:	8d b4 26 00 00 00 00 	lea    0x0(%esi,%eiz,1),%esi
    28be:	89 f6                	mov    %esi,%esi

000028c0 <SYSTEM_CPUINCLOCKED$LONGINT>:
    28c0:	f0 ff 00             	lock incl (%eax)
    28c3:	c3                   	ret    
    28c4:	8d b4 26 00 00 00 00 	lea    0x0(%esi,%eiz,1),%esi
    28cb:	8d 74 26 00          	lea    0x0(%esi,%eiz,1),%esi
    28cf:	90                   	nop

000028d0 <SYSTEM_DECLOCKED$LONGINT$$BOOLEAN>:
    28d0:	55                   	push   %ebp
    28d1:	89 e5                	mov    %esp,%ebp
    28d3:	83 ec 08             	sub    $0x8,%esp
    28d6:	89 45 fc             	mov    %eax,-0x4(%ebp)
    28d9:	a1 cc 07 02 00       	mov    0x207cc,%eax
    28de:	85 c0                	test   %eax,%eax
    28e0:	74 02                	je     28e4 <SYSTEM_DECLOCKED$LONGINT$$BOOLEAN+0x14>
    28e2:	eb 12                	jmp    28f6 <SYSTEM_DECLOCKED$LONGINT$$BOOLEAN+0x26>
    28e4:	8b 45 fc             	mov    -0x4(%ebp),%eax
    28e7:	ff 08                	decl   (%eax)
    28e9:	8b 45 fc             	mov    -0x4(%ebp),%eax
    28ec:	8b 00                	mov    (%eax),%eax
    28ee:	85 c0                	test   %eax,%eax
    28f0:	0f 94 45 f8          	sete   -0x8(%ebp)
    28f4:	eb 0b                	jmp    2901 <SYSTEM_DECLOCKED$LONGINT$$BOOLEAN+0x31>
    28f6:	8b 45 fc             	mov    -0x4(%ebp),%eax
    28f9:	e8 b2 ff ff ff       	call   28b0 <SYSTEM_CPUDECLOCKED$LONGINT$$BOOLEAN>
    28fe:	88 45 f8             	mov    %al,-0x8(%ebp)
    2901:	8a 45 f8             	mov    -0x8(%ebp),%al
    2904:	c9                   	leave  
    2905:	c3                   	ret    
    2906:	8d b4 26 00 00 00 00 	lea    0x0(%esi,%eiz,1),%esi
    290d:	8d 76 00             	lea    0x0(%esi),%esi

00002910 <SYSTEM_INCLOCKED$LONGINT>:
    2910:	55                   	push   %ebp
    2911:	89 e5                	mov    %esp,%ebp
    2913:	83 ec 04             	sub    $0x4,%esp
    2916:	89 45 fc             	mov    %eax,-0x4(%ebp)
    2919:	a1 cc 07 02 00       	mov    0x207cc,%eax
    291e:	85 c0                	test   %eax,%eax
    2920:	74 02                	je     2924 <SYSTEM_INCLOCKED$LONGINT+0x14>
    2922:	eb 07                	jmp    292b <SYSTEM_INCLOCKED$LONGINT+0x1b>
    2924:	8b 45 fc             	mov    -0x4(%ebp),%eax
    2927:	ff 00                	incl   (%eax)
    2929:	eb 08                	jmp    2933 <SYSTEM_INCLOCKED$LONGINT+0x23>
    292b:	8b 45 fc             	mov    -0x4(%ebp),%eax
    292e:	e8 8d ff ff ff       	call   28c0 <SYSTEM_CPUINCLOCKED$LONGINT>
    2933:	c9                   	leave  
    2934:	c3                   	ret    
    2935:	8d b4 26 00 00 00 00 	lea    0x0(%esi,%eiz,1),%esi
    293c:	8d 74 26 00          	lea    0x0(%esi,%eiz,1),%esi

00002940 <FPC_INTERLOCKEDDECREMENT>:
    2940:	55                   	push   %ebp
    2941:	89 e5                	mov    %esp,%ebp
    2943:	83 ec 04             	sub    $0x4,%esp
    2946:	ba ff ff ff ff       	mov    $0xffffffff,%edx
    294b:	92                   	xchg   %eax,%edx
    294c:	f0 0f c1 02          	lock xadd %eax,(%edx)
    2950:	48                   	dec    %eax
    2951:	c9                   	leave  
    2952:	c3                   	ret    
    2953:	8d b4 26 00 00 00 00 	lea    0x0(%esi,%eiz,1),%esi
    295a:	8d b6 00 00 00 00    	lea    0x0(%esi),%esi

00002960 <FPC_INTERLOCKEDINCREMENT>:
    2960:	55                   	push   %ebp
    2961:	89 e5                	mov    %esp,%ebp
    2963:	83 ec 04             	sub    $0x4,%esp
    2966:	ba 01 00 00 00       	mov    $0x1,%edx
    296b:	92                   	xchg   %eax,%edx
    296c:	f0 0f c1 02          	lock xadd %eax,(%edx)
    2970:	40                   	inc    %eax
    2971:	c9                   	leave  
    2972:	c3                   	ret    
    2973:	8d b4 26 00 00 00 00 	lea    0x0(%esi,%eiz,1),%esi
    297a:	8d b6 00 00 00 00    	lea    0x0(%esi),%esi

00002980 <FPC_INTERLOCKEDEXCHANGE>:
    2980:	55                   	push   %ebp
    2981:	89 e5                	mov    %esp,%ebp
    2983:	83 ec 04             	sub    $0x4,%esp
    2986:	87 10                	xchg   %edx,(%eax)
    2988:	89 d0                	mov    %edx,%eax
    298a:	c9                   	leave  
    298b:	c3                   	ret    
    298c:	8d 74 26 00          	lea    0x0(%esi,%eiz,1),%esi

00002990 <FPC_INTERLOCKEDEXCHANGEADD>:
    2990:	55                   	push   %ebp
    2991:	89 e5                	mov    %esp,%ebp
    2993:	83 ec 04             	sub    $0x4,%esp
    2996:	92                   	xchg   %eax,%edx
    2997:	f0 0f c1 02          	lock xadd %eax,(%edx)
    299b:	c9                   	leave  
    299c:	c3                   	ret    
    299d:	8d 76 00             	lea    0x0(%esi),%esi

000029a0 <FPC_INTERLOCKEDCOMPAREEXCHANGE>:
    29a0:	55                   	push   %ebp
    29a1:	89 e5                	mov    %esp,%ebp
    29a3:	83 ec 04             	sub    $0x4,%esp
    29a6:	91                   	xchg   %eax,%ecx
    29a7:	f0 0f b1 11          	lock cmpxchg %edx,(%ecx)
    29ab:	c9                   	leave  
    29ac:	c3                   	ret    
    29ad:	8d 76 00             	lea    0x0(%esi),%esi

000029b0 <SYSTEM_INTERLOCKEDCOMPAREEXCHANGE64$INT64$INT64$INT64$$INT64>:
    29b0:	55                   	push   %ebp
    29b1:	89 e5                	mov    %esp,%ebp
    29b3:	83 ec 08             	sub    $0x8,%esp
    29b6:	53                   	push   %ebx
    29b7:	57                   	push   %edi
    29b8:	89 c7                	mov    %eax,%edi
    29ba:	8b 55 0c             	mov    0xc(%ebp),%edx
    29bd:	8b 45 08             	mov    0x8(%ebp),%eax
    29c0:	8b 4d 14             	mov    0x14(%ebp),%ecx
    29c3:	8b 5d 10             	mov    0x10(%ebp),%ebx
    29c6:	f0 0f c7 0f          	lock cmpxchg8b (%edi)
    29ca:	5f                   	pop    %edi
    29cb:	5b                   	pop    %ebx
    29cc:	c9                   	leave  
    29cd:	c2 10 00             	ret    $0x10

000029d0 <SYSTEM_SYSINITFPU>:
    29d0:	55                   	push   %ebp
    29d1:	89 e5                	mov    %esp,%ebp
    29d3:	83 ec 08             	sub    $0x8,%esp
    29d6:	66 a1 dc 07 02 00    	mov    0x207dc,%ax
    29dc:	66 89 45 f8          	mov    %ax,-0x8(%ebp)
    29e0:	db e3                	fninit 
    29e2:	d9 6d f8             	fldcw  -0x8(%ebp)
    29e5:	9b                   	fwait
    29e6:	80 3d ba 07 02 00 00 	cmpb   $0x0,0x207ba
    29ed:	75 02                	jne    29f1 <SYSTEM_SYSINITFPU+0x21>
    29ef:	eb 0c                	jmp    29fd <SYSTEM_SYSINITFPU+0x2d>
    29f1:	a1 bc 08 02 00       	mov    0x208bc,%eax
    29f6:	89 45 fc             	mov    %eax,-0x4(%ebp)
    29f9:	0f ae 55 fc          	ldmxcsr -0x4(%ebp)
    29fd:	8b 15 3c 51 02 00    	mov    0x2513c,%edx
    2a03:	85 d2                	test   %edx,%edx
    2a05:	74 09                	je     2a10 <SYSTEM_SYSINITFPU+0x40>
    2a07:	a1 48 5d 02 00       	mov    0x25d48,%eax
    2a0c:	ff d2                	call   *%edx
    2a0e:	eb 05                	jmp    2a15 <SYSTEM_SYSINITFPU+0x45>
    2a10:	b8 4c 5d 02 00       	mov    $0x25d4c,%eax
    2a15:	c6 00 32             	movb   $0x32,(%eax)
    2a18:	c9                   	leave  
    2a19:	c3                   	ret    
    2a1a:	8d b6 00 00 00 00    	lea    0x0(%esi),%esi

00002a20 <SYSTEM_SYSRESETFPU>:
    2a20:	55                   	push   %ebp
    2a21:	89 e5                	mov    %esp,%ebp
    2a23:	83 ec 08             	sub    $0x8,%esp
    2a26:	66 a1 dc 07 02 00    	mov    0x207dc,%ax
    2a2c:	66 89 45 f8          	mov    %ax,-0x8(%ebp)
    2a30:	db e3                	fninit 
    2a32:	9b d9 6d f8          	fldcw  -0x8(%ebp)
    2a36:	80 3d ba 07 02 00 00 	cmpb   $0x0,0x207ba
    2a3d:	75 02                	jne    2a41 <SYSTEM_SYSRESETFPU+0x21>
    2a3f:	eb 0c                	jmp    2a4d <SYSTEM_SYSRESETFPU+0x2d>
    2a41:	a1 bc 08 02 00       	mov    0x208bc,%eax
    2a46:	89 45 fc             	mov    %eax,-0x4(%ebp)
    2a49:	0f ae 55 fc          	ldmxcsr -0x4(%ebp)
    2a4d:	8b 15 3c 51 02 00    	mov    0x2513c,%edx
    2a53:	85 d2                	test   %edx,%edx
    2a55:	74 09                	je     2a60 <SYSTEM_SYSRESETFPU+0x40>
    2a57:	a1 50 5d 02 00       	mov    0x25d50,%eax
    2a5c:	ff d2                	call   *%edx
    2a5e:	eb 05                	jmp    2a65 <SYSTEM_SYSRESETFPU+0x45>
    2a60:	b8 54 5d 02 00       	mov    $0x25d54,%eax
    2a65:	c6 00 00             	movb   $0x0,(%eax)
    2a68:	c9                   	leave  
    2a69:	c3                   	ret    
    2a6a:	8d b6 00 00 00 00    	lea    0x0(%esi),%esi

00002a70 <SYSTEM_FPC_CPUCODEINIT>:
    2a70:	55                   	push   %ebp
    2a71:	89 e5                	mov    %esp,%ebp
    2a73:	c6 05 d8 5d 02 00 01 	movb   $0x1,0x25dd8
    2a7a:	e8 b1 ef ff ff       	call   1a30 <SYSTEM_SSE_SUPPORT$$BOOLEAN>
    2a7f:	a2 d8 5d 02 00       	mov    %al,0x25dd8
    2a84:	80 3d d8 5d 02 00 00 	cmpb   $0x0,0x25dd8
    2a8b:	75 02                	jne    2a8f <SYSTEM_FPC_CPUCODEINIT+0x1f>
    2a8d:	eb 11                	jmp    2aa0 <SYSTEM_FPC_CPUCODEINIT+0x30>
    2a8f:	c6 05 d9 5d 02 00 01 	movb   $0x1,0x25dd9
    2a96:	0f 28 f7             	movaps %xmm7,%xmm6
    2a99:	c6 05 d9 5d 02 00 00 	movb   $0x0,0x25dd9
    2aa0:	a0 d8 5d 02 00       	mov    0x25dd8,%al
    2aa5:	a2 ba 07 02 00       	mov    %al,0x207ba
    2aaa:	80 3d ba 07 02 00 00 	cmpb   $0x0,0x207ba
    2ab1:	75 02                	jne    2ab5 <SYSTEM_FPC_CPUCODEINIT+0x45>
    2ab3:	eb 15                	jmp    2aca <SYSTEM_FPC_CPUCODEINIT+0x5a>
    2ab5:	80 3d db 07 02 00 00 	cmpb   $0x0,0x207db
    2abc:	75 02                	jne    2ac0 <SYSTEM_FPC_CPUCODEINIT+0x50>
    2abe:	eb 0a                	jmp    2aca <SYSTEM_FPC_CPUCODEINIT+0x5a>
    2ac0:	e8 5b 23 00 00       	call   4e20 <SYSTEM_GETSSECSR$$LONGWORD>
    2ac5:	a3 bc 08 02 00       	mov    %eax,0x208bc
    2aca:	e8 b1 ef ff ff       	call   1a80 <SYSTEM_MMX_SUPPORT$$BOOLEAN>
    2acf:	a2 bb 07 02 00       	mov    %al,0x207bb
    2ad4:	e8 47 ff ff ff       	call   2a20 <SYSTEM_SYSRESETFPU>
    2ad9:	a0 db 07 02 00       	mov    0x207db,%al
    2ade:	84 c0                	test   %al,%al
    2ae0:	74 02                	je     2ae4 <SYSTEM_FPC_CPUCODEINIT+0x74>
    2ae2:	eb 05                	jmp    2ae9 <SYSTEM_FPC_CPUCODEINIT+0x79>
    2ae4:	e8 e7 fe ff ff       	call   29d0 <SYSTEM_SYSINITFPU>
    2ae9:	c9                   	leave  
    2aea:	c3                   	ret    
    2aeb:	8d 74 26 00          	lea    0x0(%esi,%eiz,1),%esi
    2aef:	90                   	nop

00002af0 <FPC_ANSISTR_DECR_REF>:
    2af0:	83 38 00             	cmpl   $0x0,(%eax)
    2af3:	75 01                	jne    2af6 <FPC_ANSISTR_DECR_REF+0x6>
    2af5:	c3                   	ret    
    2af6:	83 ec 04             	sub    $0x4,%esp
    2af9:	89 04 24             	mov    %eax,(%esp)
    2afc:	8b 10                	mov    (%eax),%edx
    2afe:	83 ea 08             	sub    $0x8,%edx
    2b01:	83 3a 00             	cmpl   $0x0,(%edx)
    2b04:	7c 32                	jl     2b38 <FPC_ANSISTR_DECR_REF+0x48>
    2b06:	83 3d cc 07 02 00 00 	cmpl   $0x0,0x207cc
    2b0d:	75 08                	jne    2b17 <FPC_ANSISTR_DECR_REF+0x27>
    2b0f:	ff 0a                	decl   (%edx)
    2b11:	74 0f                	je     2b22 <FPC_ANSISTR_DECR_REF+0x32>
    2b13:	83 c4 04             	add    $0x4,%esp
    2b16:	c3                   	ret    
    2b17:	89 d0                	mov    %edx,%eax
    2b19:	e8 92 fd ff ff       	call   28b0 <SYSTEM_CPUDECLOCKED$LONGINT$$BOOLEAN>
    2b1e:	84 c0                	test   %al,%al
    2b20:	74 16                	je     2b38 <FPC_ANSISTR_DECR_REF+0x48>
    2b22:	8b 04 24             	mov    (%esp),%eax
    2b25:	8b 00                	mov    (%eax),%eax
    2b27:	83 e8 08             	sub    $0x8,%eax
    2b2a:	e8 71 37 01 00       	call   162a0 <FPC_FREEMEM_X>
    2b2f:	8b 04 24             	mov    (%esp),%eax
    2b32:	c7 00 00 00 00 00    	movl   $0x0,(%eax)
    2b38:	83 c4 04             	add    $0x4,%esp
    2b3b:	c3                   	ret    
    2b3c:	8d 74 26 00          	lea    0x0(%esi,%eiz,1),%esi

00002b40 <FPC_ANSISTR_UNIQUE>:
    2b40:	89 c2                	mov    %eax,%edx
    2b42:	8b 00                	mov    (%eax),%eax
    2b44:	85 c0                	test   %eax,%eax
    2b46:	74 0f                	je     2b57 <FPC_ANSISTR_UNIQUE+0x17>
    2b48:	8b 48 f8             	mov    -0x8(%eax),%ecx
    2b4b:	83 f9 01             	cmp    $0x1,%ecx
    2b4e:	74 07                	je     2b57 <FPC_ANSISTR_UNIQUE+0x17>
    2b50:	89 d0                	mov    %edx,%eax
    2b52:	e8 29 74 00 00       	call   9f80 <SYSTEM_FPC_TRUELY_ANSISTR_UNIQUE$POINTER$$POINTER>
    2b57:	c3                   	ret    
    2b58:	8d b4 26 00 00 00 00 	lea    0x0(%esi,%eiz,1),%esi
    2b5f:	90                   	nop

00002b60 <SYSTEM_READBARRIER>:
    2b60:	f0 83 04 24 00       	lock addl $0x0,(%esp)
    2b65:	c3                   	ret    
    2b66:	8d b4 26 00 00 00 00 	lea    0x0(%esi,%eiz,1),%esi
    2b6d:	8d 76 00             	lea    0x0(%esi),%esi

00002b70 <SYSTEM_READDEPENDENCYBARRIER>:
    2b70:	55                   	push   %ebp
    2b71:	89 e5                	mov    %esp,%ebp
    2b73:	c9                   	leave  
    2b74:	c3                   	ret    
    2b75:	8d b4 26 00 00 00 00 	lea    0x0(%esi,%eiz,1),%esi
    2b7c:	8d 74 26 00          	lea    0x0(%esi,%eiz,1),%esi

00002b80 <SYSTEM_READWRITEBARRIER>:
    2b80:	f0 83 04 24 00       	lock addl $0x0,(%esp)
    2b85:	c3                   	ret    
    2b86:	8d b4 26 00 00 00 00 	lea    0x0(%esi,%eiz,1),%esi
    2b8d:	8d 76 00             	lea    0x0(%esi),%esi

00002b90 <SYSTEM_WRITEBARRIER>:
    2b90:	c3                   	ret    
    2b91:	8d b4 26 00 00 00 00 	lea    0x0(%esi,%eiz,1),%esi
    2b98:	8d b4 26 00 00 00 00 	lea    0x0(%esi,%eiz,1),%esi
    2b9f:	90                   	nop

00002ba0 <SYSTEM_BSFQWORD$QWORD$$LONGWORD>:
    2ba0:	0f bc 44 24 04       	bsf    0x4(%esp),%eax
    2ba5:	75 08                	jne    2baf <SYSTEM_BSFQWORD$QWORD$$LONGWORD+0xf>
    2ba7:	0f bc 44 24 08       	bsf    0x8(%esp),%eax
    2bac:	83 c0 20             	add    $0x20,%eax
    2baf:	c2 08 00             	ret    $0x8
    2bb2:	8d b4 26 00 00 00 00 	lea    0x0(%esi,%eiz,1),%esi
    2bb9:	8d b4 26 00 00 00 00 	lea    0x0(%esi,%eiz,1),%esi

00002bc0 <SYSTEM_BSRQWORD$QWORD$$LONGWORD>:
    2bc0:	0f bd 44 24 08       	bsr    0x8(%esp),%eax
    2bc5:	74 05                	je     2bcc <SYSTEM_BSRQWORD$QWORD$$LONGWORD+0xc>
    2bc7:	83 c0 20             	add    $0x20,%eax
    2bca:	eb 05                	jmp    2bd1 <SYSTEM_BSRQWORD$QWORD$$LONGWORD+0x11>
    2bcc:	0f bd 44 24 04       	bsr    0x4(%esp),%eax
    2bd1:	c2 08 00             	ret    $0x8
    2bd4:	8d b4 26 00 00 00 00 	lea    0x0(%esi,%eiz,1),%esi
    2bdb:	8d 74 26 00          	lea    0x0(%esi,%eiz,1),%esi
    2bdf:	90                   	nop

00002be0 <SYSTEM_FILLCHAR$formal$LONGINT$BOOLEAN>:
    2be0:	55                   	push   %ebp
    2be1:	89 e5                	mov    %esp,%ebp
    2be3:	83 ec 0c             	sub    $0xc,%esp
    2be6:	89 45 fc             	mov    %eax,-0x4(%ebp)
    2be9:	89 55 f8             	mov    %edx,-0x8(%ebp)
    2bec:	88 4d f4             	mov    %cl,-0xc(%ebp)
    2bef:	8a 4d f4             	mov    -0xc(%ebp),%cl
    2bf2:	8b 55 f8             	mov    -0x8(%ebp),%edx
    2bf5:	8b 45 fc             	mov    -0x4(%ebp),%eax
    2bf8:	e8 93 f7 ff ff       	call   2390 <SYSTEM_FILLCHAR$formal$LONGINT$BYTE>
    2bfd:	c9                   	leave  
    2bfe:	c3                   	ret    
    2bff:	90                   	nop

00002c00 <SYSTEM_FILLCHAR$formal$LONGINT$CHAR>:
    2c00:	55                   	push   %ebp
    2c01:	89 e5                	mov    %esp,%ebp
    2c03:	83 ec 0c             	sub    $0xc,%esp
    2c06:	89 45 fc             	mov    %eax,-0x4(%ebp)
    2c09:	89 55 f8             	mov    %edx,-0x8(%ebp)
    2c0c:	88 4d f4             	mov    %cl,-0xc(%ebp)
    2c0f:	8a 4d f4             	mov    -0xc(%ebp),%cl
    2c12:	8b 55 f8             	mov    -0x8(%ebp),%edx
    2c15:	8b 45 fc             	mov    -0x4(%ebp),%eax
    2c18:	e8 73 f7 ff ff       	call   2390 <SYSTEM_FILLCHAR$formal$LONGINT$BYTE>
    2c1d:	c9                   	leave  
    2c1e:	c3                   	ret    
    2c1f:	90                   	nop

00002c20 <SYSTEM_FILLBYTE$formal$LONGINT$BYTE>:
    2c20:	55                   	push   %ebp
    2c21:	89 e5                	mov    %esp,%ebp
    2c23:	83 ec 0c             	sub    $0xc,%esp
    2c26:	89 45 fc             	mov    %eax,-0x4(%ebp)
    2c29:	89 55 f8             	mov    %edx,-0x8(%ebp)
    2c2c:	88 4d f4             	mov    %cl,-0xc(%ebp)
    2c2f:	8a 4d f4             	mov    -0xc(%ebp),%cl
    2c32:	8b 55 f8             	mov    -0x8(%ebp),%edx
    2c35:	8b 45 fc             	mov    -0x4(%ebp),%eax
    2c38:	e8 53 f7 ff ff       	call   2390 <SYSTEM_FILLCHAR$formal$LONGINT$BYTE>
    2c3d:	c9                   	leave  
    2c3e:	c3                   	ret    
    2c3f:	90                   	nop

00002c40 <SYSTEM_INDEXCHAR$formal$LONGINT$CHAR$$LONGINT>:
    2c40:	55                   	push   %ebp
    2c41:	89 e5                	mov    %esp,%ebp
    2c43:	83 ec 10             	sub    $0x10,%esp
    2c46:	89 45 fc             	mov    %eax,-0x4(%ebp)
    2c49:	89 55 f8             	mov    %edx,-0x8(%ebp)
    2c4c:	88 4d f4             	mov    %cl,-0xc(%ebp)
    2c4f:	8a 4d f4             	mov    -0xc(%ebp),%cl
    2c52:	8b 55 f8             	mov    -0x8(%ebp),%edx
    2c55:	8b 45 fc             	mov    -0x4(%ebp),%eax
    2c58:	e8 b3 f7 ff ff       	call   2410 <SYSTEM_INDEXBYTE$formal$LONGINT$BYTE$$LONGINT>
    2c5d:	89 45 f0             	mov    %eax,-0x10(%ebp)
    2c60:	8b 45 f0             	mov    -0x10(%ebp),%eax
    2c63:	c9                   	leave  
    2c64:	c3                   	ret    
    2c65:	8d b4 26 00 00 00 00 	lea    0x0(%esi,%eiz,1),%esi
    2c6c:	8d 74 26 00          	lea    0x0(%esi,%eiz,1),%esi

00002c70 <SYSTEM_COMPARECHAR$formal$formal$LONGINT$$LONGINT>:
    2c70:	55                   	push   %ebp
    2c71:	89 e5                	mov    %esp,%ebp
    2c73:	83 ec 10             	sub    $0x10,%esp
    2c76:	89 45 fc             	mov    %eax,-0x4(%ebp)
    2c79:	89 55 f8             	mov    %edx,-0x8(%ebp)
    2c7c:	89 4d f4             	mov    %ecx,-0xc(%ebp)
    2c7f:	8b 4d f4             	mov    -0xc(%ebp),%ecx
    2c82:	8b 55 f8             	mov    -0x8(%ebp),%edx
    2c85:	8b 45 fc             	mov    -0x4(%ebp),%eax
    2c88:	e8 43 f8 ff ff       	call   24d0 <SYSTEM_COMPAREBYTE$formal$formal$LONGINT$$LONGINT>
    2c8d:	89 45 f0             	mov    %eax,-0x10(%ebp)
    2c90:	8b 45 f0             	mov    -0x10(%ebp),%eax
    2c93:	c9                   	leave  
    2c94:	c3                   	ret    
    2c95:	8d b4 26 00 00 00 00 	lea    0x0(%esi,%eiz,1),%esi
    2c9c:	8d 74 26 00          	lea    0x0(%esi,%eiz,1),%esi

00002ca0 <SYSTEM_FILLQWORD$formal$LONGINT$QWORD>:
    2ca0:	55                   	push   %ebp
    2ca1:	89 e5                	mov    %esp,%ebp
    2ca3:	83 ec 10             	sub    $0x10,%esp
    2ca6:	89 45 fc             	mov    %eax,-0x4(%ebp)
    2ca9:	89 55 f8             	mov    %edx,-0x8(%ebp)
    2cac:	8b 45 f8             	mov    -0x8(%ebp),%eax
    2caf:	83 f8 00             	cmp    $0x0,%eax
    2cb2:	7e 02                	jle    2cb6 <SYSTEM_FILLQWORD$formal$LONGINT$QWORD+0x16>
    2cb4:	eb 02                	jmp    2cb8 <SYSTEM_FILLQWORD$formal$LONGINT$QWORD+0x18>
    2cb6:	eb 34                	jmp    2cec <SYSTEM_FILLQWORD$formal$LONGINT$QWORD+0x4c>
    2cb8:	8b 45 fc             	mov    -0x4(%ebp),%eax
    2cbb:	89 45 f4             	mov    %eax,-0xc(%ebp)
    2cbe:	8b 45 f8             	mov    -0x8(%ebp),%eax
    2cc1:	c1 e0 03             	shl    $0x3,%eax
    2cc4:	8b 55 f4             	mov    -0xc(%ebp),%edx
    2cc7:	01 d0                	add    %edx,%eax
    2cc9:	89 45 f0             	mov    %eax,-0x10(%ebp)
    2ccc:	eb 14                	jmp    2ce2 <SYSTEM_FILLQWORD$formal$LONGINT$QWORD+0x42>
    2cce:	89 f6                	mov    %esi,%esi
    2cd0:	8b 55 f4             	mov    -0xc(%ebp),%edx
    2cd3:	8b 45 08             	mov    0x8(%ebp),%eax
    2cd6:	89 02                	mov    %eax,(%edx)
    2cd8:	8b 45 0c             	mov    0xc(%ebp),%eax
    2cdb:	89 42 04             	mov    %eax,0x4(%edx)
    2cde:	83 45 f4 08          	addl   $0x8,-0xc(%ebp)
    2ce2:	8b 45 f4             	mov    -0xc(%ebp),%eax
    2ce5:	3b 45 f0             	cmp    -0x10(%ebp),%eax
    2ce8:	72 e6                	jb     2cd0 <SYSTEM_FILLQWORD$formal$LONGINT$QWORD+0x30>
    2cea:	eb 00                	jmp    2cec <SYSTEM_FILLQWORD$formal$LONGINT$QWORD+0x4c>
    2cec:	c9                   	leave  
    2ced:	c2 08 00             	ret    $0x8

00002cf0 <SYSTEM_INDEXQWORD$formal$LONGINT$QWORD$$LONGINT>:
    2cf0:	55                   	push   %ebp
    2cf1:	89 e5                	mov    %esp,%ebp
    2cf3:	83 ec 14             	sub    $0x14,%esp
    2cf6:	89 45 fc             	mov    %eax,-0x4(%ebp)
    2cf9:	89 55 f8             	mov    %edx,-0x8(%ebp)
    2cfc:	8b 45 fc             	mov    -0x4(%ebp),%eax
    2cff:	89 45 f0             	mov    %eax,-0x10(%ebp)
    2d02:	8b 45 f8             	mov    -0x8(%ebp),%eax
    2d05:	83 f8 00             	cmp    $0x0,%eax
    2d08:	7c 20                	jl     2d2a <SYSTEM_INDEXQWORD$formal$LONGINT$QWORD$$LONGINT+0x3a>
    2d0a:	eb 00                	jmp    2d0c <SYSTEM_INDEXQWORD$formal$LONGINT$QWORD$$LONGINT+0x1c>
    2d0c:	8b 45 f8             	mov    -0x8(%ebp),%eax
    2d0f:	3d ff ff ff 1f       	cmp    $0x1fffffff,%eax
    2d14:	7f 14                	jg     2d2a <SYSTEM_INDEXQWORD$formal$LONGINT$QWORD$$LONGINT+0x3a>
    2d16:	eb 00                	jmp    2d18 <SYSTEM_INDEXQWORD$formal$LONGINT$QWORD$$LONGINT+0x28>
    2d18:	8b 45 f8             	mov    -0x8(%ebp),%eax
    2d1b:	c1 e0 03             	shl    $0x3,%eax
    2d1e:	8b 55 f0             	mov    -0x10(%ebp),%edx
    2d21:	01 d0                	add    %edx,%eax
    2d23:	3b 45 f0             	cmp    -0x10(%ebp),%eax
    2d26:	72 02                	jb     2d2a <SYSTEM_INDEXQWORD$formal$LONGINT$QWORD$$LONGINT+0x3a>
    2d28:	eb 09                	jmp    2d33 <SYSTEM_INDEXQWORD$formal$LONGINT$QWORD$$LONGINT+0x43>
    2d2a:	c7 45 ec f7 ff ff ff 	movl   $0xfffffff7,-0x14(%ebp)
    2d31:	eb 0e                	jmp    2d41 <SYSTEM_INDEXQWORD$formal$LONGINT$QWORD$$LONGINT+0x51>
    2d33:	8b 45 f8             	mov    -0x8(%ebp),%eax
    2d36:	c1 e0 03             	shl    $0x3,%eax
    2d39:	8b 55 f0             	mov    -0x10(%ebp),%edx
    2d3c:	01 d0                	add    %edx,%eax
    2d3e:	89 45 ec             	mov    %eax,-0x14(%ebp)
    2d41:	eb 37                	jmp    2d7a <SYSTEM_INDEXQWORD$formal$LONGINT$QWORD$$LONGINT+0x8a>
    2d43:	90                   	nop
    2d44:	8b 45 f0             	mov    -0x10(%ebp),%eax
    2d47:	8b 10                	mov    (%eax),%edx
    2d49:	8b 40 04             	mov    0x4(%eax),%eax
    2d4c:	3b 45 0c             	cmp    0xc(%ebp),%eax
    2d4f:	75 25                	jne    2d76 <SYSTEM_INDEXQWORD$formal$LONGINT$QWORD$$LONGINT+0x86>
    2d51:	3b 55 08             	cmp    0x8(%ebp),%edx
    2d54:	75 20                	jne    2d76 <SYSTEM_INDEXQWORD$formal$LONGINT$QWORD$$LONGINT+0x86>
    2d56:	eb 02                	jmp    2d5a <SYSTEM_INDEXQWORD$formal$LONGINT$QWORD$$LONGINT+0x6a>
    2d58:	eb 1c                	jmp    2d76 <SYSTEM_INDEXQWORD$formal$LONGINT$QWORD$$LONGINT+0x86>
    2d5a:	8b 45 fc             	mov    -0x4(%ebp),%eax
    2d5d:	8b 55 f0             	mov    -0x10(%ebp),%edx
    2d60:	29 c2                	sub    %eax,%edx
    2d62:	89 d0                	mov    %edx,%eax
    2d64:	89 c2                	mov    %eax,%edx
    2d66:	c1 fa 1f             	sar    $0x1f,%edx
    2d69:	83 e2 07             	and    $0x7,%edx
    2d6c:	01 d0                	add    %edx,%eax
    2d6e:	c1 f8 03             	sar    $0x3,%eax
    2d71:	89 45 f4             	mov    %eax,-0xc(%ebp)
    2d74:	eb 15                	jmp    2d8b <SYSTEM_INDEXQWORD$formal$LONGINT$QWORD$$LONGINT+0x9b>
    2d76:	83 45 f0 08          	addl   $0x8,-0x10(%ebp)
    2d7a:	8b 45 f0             	mov    -0x10(%ebp),%eax
    2d7d:	3b 45 ec             	cmp    -0x14(%ebp),%eax
    2d80:	72 c2                	jb     2d44 <SYSTEM_INDEXQWORD$formal$LONGINT$QWORD$$LONGINT+0x54>
    2d82:	eb 00                	jmp    2d84 <SYSTEM_INDEXQWORD$formal$LONGINT$QWORD$$LONGINT+0x94>
    2d84:	c7 45 f4 ff ff ff ff 	movl   $0xffffffff,-0xc(%ebp)
    2d8b:	8b 45 f4             	mov    -0xc(%ebp),%eax
    2d8e:	c9                   	leave  
    2d8f:	c2 08 00             	ret    $0x8
    2d92:	8d b4 26 00 00 00 00 	lea    0x0(%esi,%eiz,1),%esi
    2d99:	8d b4 26 00 00 00 00 	lea    0x0(%esi,%eiz,1),%esi

00002da0 <SYSTEM_MOVECHAR0$formal$formal$LONGINT>:
    2da0:	55                   	push   %ebp
    2da1:	89 e5                	mov    %esp,%ebp
    2da3:	83 ec 10             	sub    $0x10,%esp
    2da6:	89 45 fc             	mov    %eax,-0x4(%ebp)
    2da9:	89 55 f8             	mov    %edx,-0x8(%ebp)
    2dac:	89 4d f4             	mov    %ecx,-0xc(%ebp)
    2daf:	8b 45 f4             	mov    -0xc(%ebp),%eax
    2db2:	85 c0                	test   %eax,%eax
    2db4:	74 02                	je     2db8 <SYSTEM_MOVECHAR0$formal$formal$LONGINT+0x18>
    2db6:	eb 02                	jmp    2dba <SYSTEM_MOVECHAR0$formal$formal$LONGINT+0x1a>
    2db8:	eb 38                	jmp    2df2 <SYSTEM_MOVECHAR0$formal$formal$LONGINT+0x52>
    2dba:	8b 55 f4             	mov    -0xc(%ebp),%edx
    2dbd:	8b 45 fc             	mov    -0x4(%ebp),%eax
    2dc0:	b1 00                	mov    $0x0,%cl
    2dc2:	e8 49 f6 ff ff       	call   2410 <SYSTEM_INDEXBYTE$formal$LONGINT$BYTE$$LONGINT>
    2dc7:	89 45 f0             	mov    %eax,-0x10(%ebp)
    2dca:	8b 45 f0             	mov    -0x10(%ebp),%eax
    2dcd:	83 f8 ff             	cmp    $0xffffffff,%eax
    2dd0:	75 02                	jne    2dd4 <SYSTEM_MOVECHAR0$formal$formal$LONGINT+0x34>
    2dd2:	eb 10                	jmp    2de4 <SYSTEM_MOVECHAR0$formal$formal$LONGINT+0x44>
    2dd4:	8b 4d f0             	mov    -0x10(%ebp),%ecx
    2dd7:	8b 55 f8             	mov    -0x8(%ebp),%edx
    2dda:	8b 45 fc             	mov    -0x4(%ebp),%eax
    2ddd:	e8 0e f5 ff ff       	call   22f0 <FPC_MOVE>
    2de2:	eb 0e                	jmp    2df2 <SYSTEM_MOVECHAR0$formal$formal$LONGINT+0x52>
    2de4:	8b 4d f4             	mov    -0xc(%ebp),%ecx
    2de7:	8b 55 f8             	mov    -0x8(%ebp),%edx
    2dea:	8b 45 fc             	mov    -0x4(%ebp),%eax
    2ded:	e8 fe f4 ff ff       	call   22f0 <FPC_MOVE>
    2df2:	c9                   	leave  
    2df3:	c3                   	ret    
    2df4:	8d b4 26 00 00 00 00 	lea    0x0(%esi,%eiz,1),%esi
    2dfb:	8d 74 26 00          	lea    0x0(%esi,%eiz,1),%esi
    2dff:	90                   	nop

00002e00 <SYSTEM_COMPARECHAR0$formal$formal$LONGINT$$LONGINT>:
    2e00:	55                   	push   %ebp
    2e01:	89 e5                	mov    %esp,%ebp
    2e03:	83 ec 20             	sub    $0x20,%esp
    2e06:	89 45 fc             	mov    %eax,-0x4(%ebp)
    2e09:	89 55 f8             	mov    %edx,-0x8(%ebp)
    2e0c:	89 4d f4             	mov    %ecx,-0xc(%ebp)
    2e0f:	c7 45 e0 00 00 00 00 	movl   $0x0,-0x20(%ebp)
    2e16:	8b 45 fc             	mov    -0x4(%ebp),%eax
    2e19:	89 45 ec             	mov    %eax,-0x14(%ebp)
    2e1c:	8b 45 f8             	mov    -0x8(%ebp),%eax
    2e1f:	89 45 e8             	mov    %eax,-0x18(%ebp)
    2e22:	8b 55 ec             	mov    -0x14(%ebp),%edx
    2e25:	8b 45 f4             	mov    -0xc(%ebp),%eax
    2e28:	01 c2                	add    %eax,%edx
    2e2a:	89 55 e4             	mov    %edx,-0x1c(%ebp)
    2e2d:	e9 62 00 00 00       	jmp    2e94 <SYSTEM_COMPARECHAR0$formal$formal$LONGINT$$LONGINT+0x94>
    2e32:	89 f6                	mov    %esi,%esi
    2e34:	8b 45 ec             	mov    -0x14(%ebp),%eax
    2e37:	0f b6 10             	movzbl (%eax),%edx
    2e3a:	8b 45 e8             	mov    -0x18(%ebp),%eax
    2e3d:	0f b6 00             	movzbl (%eax),%eax
    2e40:	29 c2                	sub    %eax,%edx
    2e42:	89 55 e0             	mov    %edx,-0x20(%ebp)
    2e45:	8b 45 e0             	mov    -0x20(%ebp),%eax
    2e48:	83 f8 00             	cmp    $0x0,%eax
    2e4b:	7c 02                	jl     2e4f <SYSTEM_COMPARECHAR0$formal$formal$LONGINT$$LONGINT+0x4f>
    2e4d:	eb 0b                	jmp    2e5a <SYSTEM_COMPARECHAR0$formal$formal$LONGINT$$LONGINT+0x5a>
    2e4f:	c7 45 f0 ff ff ff ff 	movl   $0xffffffff,-0x10(%ebp)
    2e56:	eb 4d                	jmp    2ea5 <SYSTEM_COMPARECHAR0$formal$formal$LONGINT$$LONGINT+0xa5>
    2e58:	eb 13                	jmp    2e6d <SYSTEM_COMPARECHAR0$formal$formal$LONGINT$$LONGINT+0x6d>
    2e5a:	8b 45 e0             	mov    -0x20(%ebp),%eax
    2e5d:	83 f8 00             	cmp    $0x0,%eax
    2e60:	7f 02                	jg     2e64 <SYSTEM_COMPARECHAR0$formal$formal$LONGINT$$LONGINT+0x64>
    2e62:	eb 09                	jmp    2e6d <SYSTEM_COMPARECHAR0$formal$formal$LONGINT$$LONGINT+0x6d>
    2e64:	c7 45 f0 01 00 00 00 	movl   $0x1,-0x10(%ebp)
    2e6b:	eb 38                	jmp    2ea5 <SYSTEM_COMPARECHAR0$formal$formal$LONGINT$$LONGINT+0xa5>
    2e6d:	8b 45 ec             	mov    -0x14(%ebp),%eax
    2e70:	0f b6 00             	movzbl (%eax),%eax
    2e73:	85 c0                	test   %eax,%eax
    2e75:	74 0e                	je     2e85 <SYSTEM_COMPARECHAR0$formal$formal$LONGINT$$LONGINT+0x85>
    2e77:	eb 00                	jmp    2e79 <SYSTEM_COMPARECHAR0$formal$formal$LONGINT$$LONGINT+0x79>
    2e79:	8b 45 e8             	mov    -0x18(%ebp),%eax
    2e7c:	0f b6 00             	movzbl (%eax),%eax
    2e7f:	85 c0                	test   %eax,%eax
    2e81:	74 02                	je     2e85 <SYSTEM_COMPARECHAR0$formal$formal$LONGINT$$LONGINT+0x85>
    2e83:	eb 09                	jmp    2e8e <SYSTEM_COMPARECHAR0$formal$formal$LONGINT$$LONGINT+0x8e>
    2e85:	c7 45 f0 00 00 00 00 	movl   $0x0,-0x10(%ebp)
    2e8c:	eb 17                	jmp    2ea5 <SYSTEM_COMPARECHAR0$formal$formal$LONGINT$$LONGINT+0xa5>
    2e8e:	ff 45 e8             	incl   -0x18(%ebp)
    2e91:	ff 45 ec             	incl   -0x14(%ebp)
    2e94:	8b 45 ec             	mov    -0x14(%ebp),%eax
    2e97:	3b 45 e4             	cmp    -0x1c(%ebp),%eax
    2e9a:	72 98                	jb     2e34 <SYSTEM_COMPARECHAR0$formal$formal$LONGINT$$LONGINT+0x34>
    2e9c:	eb 00                	jmp    2e9e <SYSTEM_COMPARECHAR0$formal$formal$LONGINT$$LONGINT+0x9e>
    2e9e:	c7 45 f0 00 00 00 00 	movl   $0x0,-0x10(%ebp)
    2ea5:	8b 45 f0             	mov    -0x10(%ebp),%eax
    2ea8:	c9                   	leave  
    2ea9:	c3                   	ret    
    2eaa:	8d b6 00 00 00 00    	lea    0x0(%esi),%esi

00002eb0 <FPC_HELP_CONSTRUCTOR>:
    2eb0:	55                   	push   %ebp
    2eb1:	89 e5                	mov    %esp,%ebp
    2eb3:	83 ec 14             	sub    $0x14,%esp
    2eb6:	89 45 fc             	mov    %eax,-0x4(%ebp)
    2eb9:	89 55 f8             	mov    %edx,-0x8(%ebp)
    2ebc:	89 4d f4             	mov    %ecx,-0xc(%ebp)
    2ebf:	8b 45 f8             	mov    -0x8(%ebp),%eax
    2ec2:	8b 00                	mov    (%eax),%eax
    2ec4:	85 c0                	test   %eax,%eax
    2ec6:	74 02                	je     2eca <FPC_HELP_CONSTRUCTOR+0x1a>
    2ec8:	eb 08                	jmp    2ed2 <FPC_HELP_CONSTRUCTOR+0x22>
    2eca:	8b 45 fc             	mov    -0x4(%ebp),%eax
    2ecd:	89 45 f0             	mov    %eax,-0x10(%ebp)
    2ed0:	eb 62                	jmp    2f34 <FPC_HELP_CONSTRUCTOR+0x84>
    2ed2:	8b 45 f8             	mov    -0x8(%ebp),%eax
    2ed5:	8b 00                	mov    (%eax),%eax
    2ed7:	89 45 ec             	mov    %eax,-0x14(%ebp)
    2eda:	8b 45 fc             	mov    -0x4(%ebp),%eax
    2edd:	85 c0                	test   %eax,%eax
    2edf:	74 02                	je     2ee3 <FPC_HELP_CONSTRUCTOR+0x33>
    2ee1:	eb 26                	jmp    2f09 <FPC_HELP_CONSTRUCTOR+0x59>
    2ee3:	8b 45 f8             	mov    -0x8(%ebp),%eax
    2ee6:	8b 00                	mov    (%eax),%eax
    2ee8:	8b 00                	mov    (%eax),%eax
    2eea:	83 f8 00             	cmp    $0x0,%eax
    2eed:	77 02                	ja     2ef1 <FPC_HELP_CONSTRUCTOR+0x41>
    2eef:	eb 18                	jmp    2f09 <FPC_HELP_CONSTRUCTOR+0x59>
    2ef1:	8b 45 f8             	mov    -0x8(%ebp),%eax
    2ef4:	8b 00                	mov    (%eax),%eax
    2ef6:	8b 10                	mov    (%eax),%edx
    2ef8:	8d 45 fc             	lea    -0x4(%ebp),%eax
    2efb:	e8 c0 32 01 00       	call   161c0 <SYSTEM_GETMEM$POINTER$LONGWORD>
    2f00:	8b 45 f8             	mov    -0x8(%ebp),%eax
    2f03:	c7 00 ff ff ff ff    	movl   $0xffffffff,(%eax)
    2f09:	8b 45 fc             	mov    -0x4(%ebp),%eax
    2f0c:	85 c0                	test   %eax,%eax
    2f0e:	75 02                	jne    2f12 <FPC_HELP_CONSTRUCTOR+0x62>
    2f10:	eb 1c                	jmp    2f2e <FPC_HELP_CONSTRUCTOR+0x7e>
    2f12:	8b 45 ec             	mov    -0x14(%ebp),%eax
    2f15:	8b 10                	mov    (%eax),%edx
    2f17:	8b 45 fc             	mov    -0x4(%ebp),%eax
    2f1a:	b1 00                	mov    $0x0,%cl
    2f1c:	e8 df fc ff ff       	call   2c00 <SYSTEM_FILLCHAR$formal$LONGINT$CHAR>
    2f21:	8b 55 fc             	mov    -0x4(%ebp),%edx
    2f24:	8b 45 f4             	mov    -0xc(%ebp),%eax
    2f27:	01 c2                	add    %eax,%edx
    2f29:	8b 45 ec             	mov    -0x14(%ebp),%eax
    2f2c:	89 02                	mov    %eax,(%edx)
    2f2e:	8b 45 fc             	mov    -0x4(%ebp),%eax
    2f31:	89 45 f0             	mov    %eax,-0x10(%ebp)
    2f34:	8b 45 f0             	mov    -0x10(%ebp),%eax
    2f37:	c9                   	leave  
    2f38:	c3                   	ret    
    2f39:	8d b4 26 00 00 00 00 	lea    0x0(%esi,%eiz,1),%esi

00002f40 <FPC_HELP_DESTRUCTOR>:
    2f40:	55                   	push   %ebp
    2f41:	89 e5                	mov    %esp,%ebp
    2f43:	83 ec 0c             	sub    $0xc,%esp
    2f46:	89 45 fc             	mov    %eax,-0x4(%ebp)
    2f49:	89 55 f8             	mov    %edx,-0x8(%ebp)
    2f4c:	89 4d f4             	mov    %ecx,-0xc(%ebp)
    2f4f:	8b 45 fc             	mov    -0x4(%ebp),%eax
    2f52:	85 c0                	test   %eax,%eax
    2f54:	74 1b                	je     2f71 <FPC_HELP_DESTRUCTOR+0x31>
    2f56:	eb 00                	jmp    2f58 <FPC_HELP_DESTRUCTOR+0x18>
    2f58:	8b 45 f8             	mov    -0x8(%ebp),%eax
    2f5b:	85 c0                	test   %eax,%eax
    2f5d:	74 12                	je     2f71 <FPC_HELP_DESTRUCTOR+0x31>
    2f5f:	eb 00                	jmp    2f61 <FPC_HELP_DESTRUCTOR+0x21>
    2f61:	8b 45 fc             	mov    -0x4(%ebp),%eax
    2f64:	8b 55 f4             	mov    -0xc(%ebp),%edx
    2f67:	01 d0                	add    %edx,%eax
    2f69:	8b 00                	mov    (%eax),%eax
    2f6b:	85 c0                	test   %eax,%eax
    2f6d:	74 02                	je     2f71 <FPC_HELP_DESTRUCTOR+0x31>
    2f6f:	eb 02                	jmp    2f73 <FPC_HELP_DESTRUCTOR+0x33>
    2f71:	eb 52                	jmp    2fc5 <FPC_HELP_DESTRUCTOR+0x85>
    2f73:	8b 45 fc             	mov    -0x4(%ebp),%eax
    2f76:	8b 55 f4             	mov    -0xc(%ebp),%edx
    2f79:	01 d0                	add    %edx,%eax
    2f7b:	8b 00                	mov    (%eax),%eax
    2f7d:	8b 00                	mov    (%eax),%eax
    2f7f:	85 c0                	test   %eax,%eax
    2f81:	74 23                	je     2fa6 <FPC_HELP_DESTRUCTOR+0x66>
    2f83:	eb 00                	jmp    2f85 <FPC_HELP_DESTRUCTOR+0x45>
    2f85:	8b 45 fc             	mov    -0x4(%ebp),%eax
    2f88:	8b 55 f4             	mov    -0xc(%ebp),%edx
    2f8b:	01 d0                	add    %edx,%eax
    2f8d:	8b 08                	mov    (%eax),%ecx
    2f8f:	8b 45 fc             	mov    -0x4(%ebp),%eax
    2f92:	8b 55 f4             	mov    -0xc(%ebp),%edx
    2f95:	01 d0                	add    %edx,%eax
    2f97:	8b 00                	mov    (%eax),%eax
    2f99:	8b 11                	mov    (%ecx),%edx
    2f9b:	8b 40 04             	mov    0x4(%eax),%eax
    2f9e:	01 c2                	add    %eax,%edx
    2fa0:	85 d2                	test   %edx,%edx
    2fa2:	75 02                	jne    2fa6 <FPC_HELP_DESTRUCTOR+0x66>
    2fa4:	eb 09                	jmp    2faf <FPC_HELP_DESTRUCTOR+0x6f>
    2fa6:	66 b8 d2 00          	mov    $0xd2,%ax
    2faa:	e8 91 28 01 00       	call   15840 <FPC_RUNERROR>
    2faf:	8b 45 fc             	mov    -0x4(%ebp),%eax
    2fb2:	8b 55 f4             	mov    -0xc(%ebp),%edx
    2fb5:	01 d0                	add    %edx,%eax
    2fb7:	c7 00 00 00 00 00    	movl   $0x0,(%eax)
    2fbd:	8b 45 fc             	mov    -0x4(%ebp),%eax
    2fc0:	e8 db 32 01 00       	call   162a0 <FPC_FREEMEM_X>
    2fc5:	c9                   	leave  
    2fc6:	c3                   	ret    
    2fc7:	8d b4 26 00 00 00 00 	lea    0x0(%esi,%eiz,1),%esi
    2fce:	89 f6                	mov    %esi,%esi

00002fd0 <FPC_HELP_FAIL>:
    2fd0:	55                   	push   %ebp
    2fd1:	89 e5                	mov    %esp,%ebp
    2fd3:	83 ec 0c             	sub    $0xc,%esp
    2fd6:	89 45 fc             	mov    %eax,-0x4(%ebp)
    2fd9:	89 55 f8             	mov    %edx,-0x8(%ebp)
    2fdc:	89 4d f4             	mov    %ecx,-0xc(%ebp)
    2fdf:	8b 45 fc             	mov    -0x4(%ebp),%eax
    2fe2:	85 c0                	test   %eax,%eax
    2fe4:	74 0d                	je     2ff3 <FPC_HELP_FAIL+0x23>
    2fe6:	eb 00                	jmp    2fe8 <FPC_HELP_FAIL+0x18>
    2fe8:	8b 45 f8             	mov    -0x8(%ebp),%eax
    2feb:	8b 00                	mov    (%eax),%eax
    2fed:	85 c0                	test   %eax,%eax
    2fef:	74 02                	je     2ff3 <FPC_HELP_FAIL+0x23>
    2ff1:	eb 02                	jmp    2ff5 <FPC_HELP_FAIL+0x25>
    2ff3:	eb 60                	jmp    3055 <FPC_HELP_FAIL+0x85>
    2ff5:	8b 45 f8             	mov    -0x8(%ebp),%eax
    2ff8:	8b 00                	mov    (%eax),%eax
    2ffa:	83 f8 ff             	cmp    $0xffffffff,%eax
    2ffd:	74 02                	je     3001 <FPC_HELP_FAIL+0x31>
    2fff:	eb 46                	jmp    3047 <FPC_HELP_FAIL+0x77>
    3001:	8b 45 fc             	mov    -0x4(%ebp),%eax
    3004:	85 c0                	test   %eax,%eax
    3006:	74 12                	je     301a <FPC_HELP_FAIL+0x4a>
    3008:	eb 00                	jmp    300a <FPC_HELP_FAIL+0x3a>
    300a:	8b 45 fc             	mov    -0x4(%ebp),%eax
    300d:	8b 55 f4             	mov    -0xc(%ebp),%edx
    3010:	01 d0                	add    %edx,%eax
    3012:	8b 00                	mov    (%eax),%eax
    3014:	85 c0                	test   %eax,%eax
    3016:	74 02                	je     301a <FPC_HELP_FAIL+0x4a>
    3018:	eb 0c                	jmp    3026 <FPC_HELP_FAIL+0x56>
    301a:	b8 d2 00 00 00       	mov    $0xd2,%eax
    301f:	e8 fc 27 01 00       	call   15820 <FPC_HANDLEERROR>
    3024:	eb 1f                	jmp    3045 <FPC_HELP_FAIL+0x75>
    3026:	8b 45 fc             	mov    -0x4(%ebp),%eax
    3029:	8b 55 f4             	mov    -0xc(%ebp),%edx
    302c:	01 d0                	add    %edx,%eax
    302e:	c7 00 00 00 00 00    	movl   $0x0,(%eax)
    3034:	8b 45 fc             	mov    -0x4(%ebp),%eax
    3037:	e8 64 32 01 00       	call   162a0 <FPC_FREEMEM_X>
    303c:	8b 45 f8             	mov    -0x8(%ebp),%eax
    303f:	c7 00 00 00 00 00    	movl   $0x0,(%eax)
    3045:	eb 0e                	jmp    3055 <FPC_HELP_FAIL+0x85>
    3047:	8b 45 fc             	mov    -0x4(%ebp),%eax
    304a:	8b 55 f4             	mov    -0xc(%ebp),%edx
    304d:	01 d0                	add    %edx,%eax
    304f:	c7 00 00 00 00 00    	movl   $0x0,(%eax)
    3055:	c9                   	leave  
    3056:	c3                   	ret    
    3057:	8d b4 26 00 00 00 00 	lea    0x0(%esi,%eiz,1),%esi
    305e:	89 f6                	mov    %esi,%esi

00003060 <FPC_CHECK_OBJECT>:
    3060:	55                   	push   %ebp
    3061:	89 e5                	mov    %esp,%ebp
    3063:	83 ec 04             	sub    $0x4,%esp
    3066:	89 45 fc             	mov    %eax,-0x4(%ebp)
    3069:	8b 45 fc             	mov    -0x4(%ebp),%eax
    306c:	85 c0                	test   %eax,%eax
    306e:	74 20                	je     3090 <FPC_CHECK_OBJECT+0x30>
    3070:	eb 00                	jmp    3072 <FPC_CHECK_OBJECT+0x12>
    3072:	8b 45 fc             	mov    -0x4(%ebp),%eax
    3075:	8b 00                	mov    (%eax),%eax
    3077:	85 c0                	test   %eax,%eax
    3079:	74 15                	je     3090 <FPC_CHECK_OBJECT+0x30>
    307b:	eb 00                	jmp    307d <FPC_CHECK_OBJECT+0x1d>
    307d:	8b 45 fc             	mov    -0x4(%ebp),%eax
    3080:	8b 4d fc             	mov    -0x4(%ebp),%ecx
    3083:	8b 10                	mov    (%eax),%edx
    3085:	8b 41 04             	mov    0x4(%ecx),%eax
    3088:	01 c2                	add    %eax,%edx
    308a:	85 d2                	test   %edx,%edx
    308c:	75 02                	jne    3090 <FPC_CHECK_OBJECT+0x30>
    308e:	eb 09                	jmp    3099 <FPC_CHECK_OBJECT+0x39>
    3090:	66 b8 d2 00          	mov    $0xd2,%ax
    3094:	e8 a7 27 01 00       	call   15840 <FPC_RUNERROR>
    3099:	c9                   	leave  
    309a:	c3                   	ret    
    309b:	8d 74 26 00          	lea    0x0(%esi,%eiz,1),%esi
    309f:	90                   	nop

000030a0 <FPC_CHECK_OBJECT_EXT>:
    30a0:	55                   	push   %ebp
    30a1:	89 e5                	mov    %esp,%ebp
    30a3:	83 ec 08             	sub    $0x8,%esp
    30a6:	89 45 fc             	mov    %eax,-0x4(%ebp)
    30a9:	89 55 f8             	mov    %edx,-0x8(%ebp)
    30ac:	8b 45 fc             	mov    -0x4(%ebp),%eax
    30af:	85 c0                	test   %eax,%eax
    30b1:	74 20                	je     30d3 <FPC_CHECK_OBJECT_EXT+0x33>
    30b3:	eb 00                	jmp    30b5 <FPC_CHECK_OBJECT_EXT+0x15>
    30b5:	8b 45 fc             	mov    -0x4(%ebp),%eax
    30b8:	8b 00                	mov    (%eax),%eax
    30ba:	85 c0                	test   %eax,%eax
    30bc:	74 15                	je     30d3 <FPC_CHECK_OBJECT_EXT+0x33>
    30be:	eb 00                	jmp    30c0 <FPC_CHECK_OBJECT_EXT+0x20>
    30c0:	8b 45 fc             	mov    -0x4(%ebp),%eax
    30c3:	8b 55 fc             	mov    -0x4(%ebp),%edx
    30c6:	8b 08                	mov    (%eax),%ecx
    30c8:	8b 42 04             	mov    0x4(%edx),%eax
    30cb:	01 c1                	add    %eax,%ecx
    30cd:	85 c9                	test   %ecx,%ecx
    30cf:	75 02                	jne    30d3 <FPC_CHECK_OBJECT_EXT+0x33>
    30d1:	eb 09                	jmp    30dc <FPC_CHECK_OBJECT_EXT+0x3c>
    30d3:	66 b8 d2 00          	mov    $0xd2,%ax
    30d7:	e8 64 27 01 00       	call   15840 <FPC_RUNERROR>
    30dc:	eb 19                	jmp    30f7 <FPC_CHECK_OBJECT_EXT+0x57>
    30de:	89 f6                	mov    %esi,%esi
    30e0:	8b 45 fc             	mov    -0x4(%ebp),%eax
    30e3:	3b 45 f8             	cmp    -0x8(%ebp),%eax
    30e6:	74 02                	je     30ea <FPC_CHECK_OBJECT_EXT+0x4a>
    30e8:	eb 04                	jmp    30ee <FPC_CHECK_OBJECT_EXT+0x4e>
    30ea:	eb 1c                	jmp    3108 <FPC_CHECK_OBJECT_EXT+0x68>
    30ec:	eb 09                	jmp    30f7 <FPC_CHECK_OBJECT_EXT+0x57>
    30ee:	8b 45 fc             	mov    -0x4(%ebp),%eax
    30f1:	8b 40 08             	mov    0x8(%eax),%eax
    30f4:	89 45 fc             	mov    %eax,-0x4(%ebp)
    30f7:	83 7d fc 00          	cmpl   $0x0,-0x4(%ebp)
    30fb:	75 e3                	jne    30e0 <FPC_CHECK_OBJECT_EXT+0x40>
    30fd:	eb 00                	jmp    30ff <FPC_CHECK_OBJECT_EXT+0x5f>
    30ff:	66 b8 db 00          	mov    $0xdb,%ax
    3103:	e8 38 27 01 00       	call   15840 <FPC_RUNERROR>
    3108:	c9                   	leave  
    3109:	c3                   	ret    
    310a:	8d b6 00 00 00 00    	lea    0x0(%esi),%esi

00003110 <fpc_shortstr_concat>:
    3110:	55                   	push   %ebp
    3111:	89 e5                	mov    %esp,%ebp
    3113:	83 ec 14             	sub    $0x14,%esp
    3116:	89 45 fc             	mov    %eax,-0x4(%ebp)
    3119:	89 55 f4             	mov    %edx,-0xc(%ebp)
    311c:	89 4d f8             	mov    %ecx,-0x8(%ebp)
    311f:	8b 45 f8             	mov    -0x8(%ebp),%eax
    3122:	0f b6 00             	movzbl (%eax),%eax
    3125:	89 45 f0             	mov    %eax,-0x10(%ebp)
    3128:	8b 45 08             	mov    0x8(%ebp),%eax
    312b:	0f b6 00             	movzbl (%eax),%eax
    312e:	89 45 ec             	mov    %eax,-0x14(%ebp)
    3131:	8b 45 f0             	mov    -0x10(%ebp),%eax
    3134:	8b 55 ec             	mov    -0x14(%ebp),%edx
    3137:	01 d0                	add    %edx,%eax
    3139:	3b 45 f4             	cmp    -0xc(%ebp),%eax
    313c:	7f 02                	jg     3140 <fpc_shortstr_concat+0x30>
    313e:	eb 1b                	jmp    315b <fpc_shortstr_concat+0x4b>
    3140:	8b 45 f0             	mov    -0x10(%ebp),%eax
    3143:	3b 45 f4             	cmp    -0xc(%ebp),%eax
    3146:	7f 02                	jg     314a <fpc_shortstr_concat+0x3a>
    3148:	eb 06                	jmp    3150 <fpc_shortstr_concat+0x40>
    314a:	8b 45 f4             	mov    -0xc(%ebp),%eax
    314d:	89 45 f0             	mov    %eax,-0x10(%ebp)
    3150:	8b 45 f4             	mov    -0xc(%ebp),%eax
    3153:	8b 55 f0             	mov    -0x10(%ebp),%edx
    3156:	29 d0                	sub    %edx,%eax
    3158:	89 45 ec             	mov    %eax,-0x14(%ebp)
    315b:	8b 45 fc             	mov    -0x4(%ebp),%eax
    315e:	8b 55 f8             	mov    -0x8(%ebp),%edx
    3161:	39 d0                	cmp    %edx,%eax
    3163:	74 02                	je     3167 <fpc_shortstr_concat+0x57>
    3165:	eb 1d                	jmp    3184 <fpc_shortstr_concat+0x74>
    3167:	8b 55 fc             	mov    -0x4(%ebp),%edx
    316a:	8b 45 f0             	mov    -0x10(%ebp),%eax
    316d:	40                   	inc    %eax
    316e:	0f b6 c0             	movzbl %al,%eax
    3171:	8d 14 02             	lea    (%edx,%eax,1),%edx
    3174:	8b 4d ec             	mov    -0x14(%ebp),%ecx
    3177:	8b 45 08             	mov    0x8(%ebp),%eax
    317a:	8d 40 01             	lea    0x1(%eax),%eax
    317d:	e8 6e f1 ff ff       	call   22f0 <FPC_MOVE>
    3182:	eb 6c                	jmp    31f0 <fpc_shortstr_concat+0xe0>
    3184:	8b 45 fc             	mov    -0x4(%ebp),%eax
    3187:	8b 55 08             	mov    0x8(%ebp),%edx
    318a:	39 d0                	cmp    %edx,%eax
    318c:	74 02                	je     3190 <fpc_shortstr_concat+0x80>
    318e:	eb 31                	jmp    31c1 <fpc_shortstr_concat+0xb1>
    3190:	8b 55 fc             	mov    -0x4(%ebp),%edx
    3193:	8b 45 f0             	mov    -0x10(%ebp),%eax
    3196:	40                   	inc    %eax
    3197:	0f b6 c0             	movzbl %al,%eax
    319a:	8d 14 02             	lea    (%edx,%eax,1),%edx
    319d:	8b 4d ec             	mov    -0x14(%ebp),%ecx
    31a0:	8b 45 fc             	mov    -0x4(%ebp),%eax
    31a3:	8d 40 01             	lea    0x1(%eax),%eax
    31a6:	e8 45 f1 ff ff       	call   22f0 <FPC_MOVE>
    31ab:	8b 4d f0             	mov    -0x10(%ebp),%ecx
    31ae:	8b 45 fc             	mov    -0x4(%ebp),%eax
    31b1:	8d 50 01             	lea    0x1(%eax),%edx
    31b4:	8b 45 f8             	mov    -0x8(%ebp),%eax
    31b7:	8d 40 01             	lea    0x1(%eax),%eax
    31ba:	e8 31 f1 ff ff       	call   22f0 <FPC_MOVE>
    31bf:	eb 2f                	jmp    31f0 <fpc_shortstr_concat+0xe0>
    31c1:	8b 4d f0             	mov    -0x10(%ebp),%ecx
    31c4:	8b 45 fc             	mov    -0x4(%ebp),%eax
    31c7:	8d 50 01             	lea    0x1(%eax),%edx
    31ca:	8b 45 f8             	mov    -0x8(%ebp),%eax
    31cd:	8d 40 01             	lea    0x1(%eax),%eax
    31d0:	e8 1b f1 ff ff       	call   22f0 <FPC_MOVE>
    31d5:	8b 55 fc             	mov    -0x4(%ebp),%edx
    31d8:	8b 45 f0             	mov    -0x10(%ebp),%eax
    31db:	40                   	inc    %eax
    31dc:	0f b6 c0             	movzbl %al,%eax
    31df:	8d 14 02             	lea    (%edx,%eax,1),%edx
    31e2:	8b 4d ec             	mov    -0x14(%ebp),%ecx
    31e5:	8b 45 08             	mov    0x8(%ebp),%eax
    31e8:	8d 40 01             	lea    0x1(%eax),%eax
    31eb:	e8 00 f1 ff ff       	call   22f0 <FPC_MOVE>
    31f0:	8b 45 f0             	mov    -0x10(%ebp),%eax
    31f3:	8b 55 ec             	mov    -0x14(%ebp),%edx
    31f6:	01 d0                	add    %edx,%eax
    31f8:	8b 55 fc             	mov    -0x4(%ebp),%edx
    31fb:	88 02                	mov    %al,(%edx)
    31fd:	c9                   	leave  
    31fe:	c2 04 00             	ret    $0x4
    3201:	8d b4 26 00 00 00 00 	lea    0x0(%esi,%eiz,1),%esi
    3208:	8d b4 26 00 00 00 00 	lea    0x0(%esi,%eiz,1),%esi
    320f:	90                   	nop

00003210 <fpc_shortstr_concat_multi>:
    3210:	55                   	push   %ebp
    3211:	89 e5                	mov    %esp,%ebp
    3213:	81 ec 30 01 00 00    	sub    $0x130,%esp
    3219:	89 9d d0 fe ff ff    	mov    %ebx,-0x130(%ebp)
    321f:	89 45 fc             	mov    %eax,-0x4(%ebp)
    3222:	89 55 f4             	mov    %edx,-0xc(%ebp)
    3225:	89 4d f8             	mov    %ecx,-0x8(%ebp)
    3228:	8b 45 08             	mov    0x8(%ebp),%eax
    322b:	85 c0                	test   %eax,%eax
    322d:	74 02                	je     3231 <fpc_shortstr_concat_multi+0x21>
    322f:	eb 0b                	jmp    323c <fpc_shortstr_concat_multi+0x2c>
    3231:	8b 45 fc             	mov    -0x4(%ebp),%eax
    3234:	c6 00 00             	movb   $0x0,(%eax)
    3237:	e9 53 01 00 00       	jmp    338f <fpc_shortstr_concat_multi+0x17f>
    323c:	c7 45 ec 00 00 00 00 	movl   $0x0,-0x14(%ebp)
    3243:	8b 45 fc             	mov    -0x4(%ebp),%eax
    3246:	8b 55 f8             	mov    -0x8(%ebp),%edx
    3249:	8b 4d ec             	mov    -0x14(%ebp),%ecx
    324c:	3b 04 8a             	cmp    (%edx,%ecx,4),%eax
    324f:	74 02                	je     3253 <fpc_shortstr_concat_multi+0x43>
    3251:	eb 03                	jmp    3256 <fpc_shortstr_concat_multi+0x46>
    3253:	ff 45 ec             	incl   -0x14(%ebp)
    3256:	c6 45 dc 00          	movb   $0x0,-0x24(%ebp)
    325a:	8b 5d 08             	mov    0x8(%ebp),%ebx
    325d:	8b 45 ec             	mov    -0x14(%ebp),%eax
    3260:	89 45 e8             	mov    %eax,-0x18(%ebp)
    3263:	3b 5d e8             	cmp    -0x18(%ebp),%ebx
    3266:	7c 22                	jl     328a <fpc_shortstr_concat_multi+0x7a>
    3268:	ff 4d e8             	decl   -0x18(%ebp)
    326b:	90                   	nop
    326c:	ff 45 e8             	incl   -0x18(%ebp)
    326f:	8b 45 fc             	mov    -0x4(%ebp),%eax
    3272:	8b 4d f8             	mov    -0x8(%ebp),%ecx
    3275:	8b 55 e8             	mov    -0x18(%ebp),%edx
    3278:	3b 04 91             	cmp    (%ecx,%edx,4),%eax
    327b:	74 02                	je     327f <fpc_shortstr_concat_multi+0x6f>
    327d:	eb 06                	jmp    3285 <fpc_shortstr_concat_multi+0x75>
    327f:	c6 45 dc 01          	movb   $0x1,-0x24(%ebp)
    3283:	eb 05                	jmp    328a <fpc_shortstr_concat_multi+0x7a>
    3285:	3b 5d e8             	cmp    -0x18(%ebp),%ebx
    3288:	7f e2                	jg     326c <fpc_shortstr_concat_multi+0x5c>
    328a:	80 7d dc 00          	cmpb   $0x0,-0x24(%ebp)
    328e:	75 02                	jne    3292 <fpc_shortstr_concat_multi+0x82>
    3290:	eb 1c                	jmp    32ae <fpc_shortstr_concat_multi+0x9e>
    3292:	c7 45 ec 00 00 00 00 	movl   $0x0,-0x14(%ebp)
    3299:	c6 85 dc fe ff ff 00 	movb   $0x0,-0x124(%ebp)
    32a0:	8d 85 dc fe ff ff    	lea    -0x124(%ebp),%eax
    32a6:	89 85 d4 fe ff ff    	mov    %eax,-0x12c(%ebp)
    32ac:	eb 18                	jmp    32c6 <fpc_shortstr_concat_multi+0xb6>
    32ae:	8b 45 ec             	mov    -0x14(%ebp),%eax
    32b1:	85 c0                	test   %eax,%eax
    32b3:	74 02                	je     32b7 <fpc_shortstr_concat_multi+0xa7>
    32b5:	eb 06                	jmp    32bd <fpc_shortstr_concat_multi+0xad>
    32b7:	8b 45 fc             	mov    -0x4(%ebp),%eax
    32ba:	c6 00 00             	movb   $0x0,(%eax)
    32bd:	8b 45 fc             	mov    -0x4(%ebp),%eax
    32c0:	89 85 d4 fe ff ff    	mov    %eax,-0x12c(%ebp)
    32c6:	8b 85 d4 fe ff ff    	mov    -0x12c(%ebp),%eax
    32cc:	0f b6 00             	movzbl (%eax),%eax
    32cf:	89 45 e4             	mov    %eax,-0x1c(%ebp)
    32d2:	8b 95 d4 fe ff ff    	mov    -0x12c(%ebp),%edx
    32d8:	8b 85 d4 fe ff ff    	mov    -0x12c(%ebp),%eax
    32de:	0f b6 00             	movzbl (%eax),%eax
    32e1:	40                   	inc    %eax
    32e2:	0f b6 c0             	movzbl %al,%eax
    32e5:	8d 04 02             	lea    (%edx,%eax,1),%eax
    32e8:	89 45 e0             	mov    %eax,-0x20(%ebp)
    32eb:	8b 5d 08             	mov    0x8(%ebp),%ebx
    32ee:	8b 45 ec             	mov    -0x14(%ebp),%eax
    32f1:	89 45 e8             	mov    %eax,-0x18(%ebp)
    32f4:	3b 5d e8             	cmp    -0x18(%ebp),%ebx
    32f7:	0f 8c 6e 00 00 00    	jl     336b <fpc_shortstr_concat_multi+0x15b>
    32fd:	ff 4d e8             	decl   -0x18(%ebp)
    3300:	ff 45 e8             	incl   -0x18(%ebp)
    3303:	8b 45 f8             	mov    -0x8(%ebp),%eax
    3306:	8b 55 e8             	mov    -0x18(%ebp),%edx
    3309:	8b 04 90             	mov    (%eax,%edx,4),%eax
    330c:	89 85 d8 fe ff ff    	mov    %eax,-0x128(%ebp)
    3312:	83 bd d8 fe ff ff 00 	cmpl   $0x0,-0x128(%ebp)
    3319:	75 02                	jne    331d <fpc_shortstr_concat_multi+0x10d>
    331b:	eb 49                	jmp    3366 <fpc_shortstr_concat_multi+0x156>
    331d:	8b 85 d8 fe ff ff    	mov    -0x128(%ebp),%eax
    3323:	8a 00                	mov    (%eax),%al
    3325:	88 45 f0             	mov    %al,-0x10(%ebp)
    3328:	0f b6 55 f0          	movzbl -0x10(%ebp),%edx
    332c:	8b 45 e4             	mov    -0x1c(%ebp),%eax
    332f:	01 d0                	add    %edx,%eax
    3331:	3b 45 f4             	cmp    -0xc(%ebp),%eax
    3334:	7f 02                	jg     3338 <fpc_shortstr_concat_multi+0x128>
    3336:	eb 0b                	jmp    3343 <fpc_shortstr_concat_multi+0x133>
    3338:	8b 45 f4             	mov    -0xc(%ebp),%eax
    333b:	8b 55 e4             	mov    -0x1c(%ebp),%edx
    333e:	29 d0                	sub    %edx,%eax
    3340:	88 45 f0             	mov    %al,-0x10(%ebp)
    3343:	8b 55 e0             	mov    -0x20(%ebp),%edx
    3346:	8b 85 d8 fe ff ff    	mov    -0x128(%ebp),%eax
    334c:	8d 40 01             	lea    0x1(%eax),%eax
    334f:	0f b6 4d f0          	movzbl -0x10(%ebp),%ecx
    3353:	e8 98 ef ff ff       	call   22f0 <FPC_MOVE>
    3358:	0f b6 45 f0          	movzbl -0x10(%ebp),%eax
    335c:	01 45 e0             	add    %eax,-0x20(%ebp)
    335f:	0f b6 45 f0          	movzbl -0x10(%ebp),%eax
    3363:	01 45 e4             	add    %eax,-0x1c(%ebp)
    3366:	3b 5d e8             	cmp    -0x18(%ebp),%ebx
    3369:	7f 95                	jg     3300 <fpc_shortstr_concat_multi+0xf0>
    336b:	8b 85 d4 fe ff ff    	mov    -0x12c(%ebp),%eax
    3371:	8a 55 e4             	mov    -0x1c(%ebp),%dl
    3374:	88 10                	mov    %dl,(%eax)
    3376:	80 7d dc 00          	cmpb   $0x0,-0x24(%ebp)
    337a:	75 02                	jne    337e <fpc_shortstr_concat_multi+0x16e>
    337c:	eb 11                	jmp    338f <fpc_shortstr_concat_multi+0x17f>
    337e:	8d 8d dc fe ff ff    	lea    -0x124(%ebp),%ecx
    3384:	8b 55 f4             	mov    -0xc(%ebp),%edx
    3387:	8b 45 fc             	mov    -0x4(%ebp),%eax
    338a:	e8 e1 f2 ff ff       	call   2670 <FPC_SHORTSTR_TO_SHORTSTR>
    338f:	8b 9d d0 fe ff ff    	mov    -0x130(%ebp),%ebx
    3395:	c9                   	leave  
    3396:	c2 04 00             	ret    $0x4
    3399:	8d b4 26 00 00 00 00 	lea    0x0(%esi,%eiz,1),%esi

000033a0 <FPC_SHORTSTR_APPEND_SHORTSTR>:
    33a0:	55                   	push   %ebp
    33a1:	89 e5                	mov    %esp,%ebp
    33a3:	83 ec 14             	sub    $0x14,%esp
    33a6:	89 45 fc             	mov    %eax,-0x4(%ebp)
    33a9:	89 55 f4             	mov    %edx,-0xc(%ebp)
    33ac:	89 4d f8             	mov    %ecx,-0x8(%ebp)
    33af:	8b 45 fc             	mov    -0x4(%ebp),%eax
    33b2:	66 0f b6 00          	movzbw (%eax),%ax
    33b6:	66 89 45 f0          	mov    %ax,-0x10(%ebp)
    33ba:	8b 45 f8             	mov    -0x8(%ebp),%eax
    33bd:	66 0f b6 00          	movzbw (%eax),%ax
    33c1:	66 89 45 ec          	mov    %ax,-0x14(%ebp)
    33c5:	0f bf 45 f0          	movswl -0x10(%ebp),%eax
    33c9:	0f bf 55 ec          	movswl -0x14(%ebp),%edx
    33cd:	01 d0                	add    %edx,%eax
    33cf:	3b 45 f4             	cmp    -0xc(%ebp),%eax
    33d2:	7f 02                	jg     33d6 <FPC_SHORTSTR_APPEND_SHORTSTR+0x36>
